Certificate:
    Data:
        Version: 3 (0x2)
        Serial Number: 100 (0x64)
    Signature Algorithm: sha256WithRSAEncryption
        Issuer: C = US, ST = Montana, L = Bozeman, O = Sawtooth, OU = Consulting, CN = www.wolfssl.com, emailAddress = info@wolfssl.com
        Validity
            Not Before: Jan 29 07:49:18 2021 GMT
            Not After : Oct 26 07:49:18 2023 GMT
        Subject: C = US, ST = Washington, L = Seattle, O = wolfSSL Inc., OU = Engineering, CN = chainJ-ICA4-pathlen2, emailAddress = info@wolfssl.com
        Subject Public Key Info:
            Public Key Algorithm: rsaEncryption
                Public-Key: (2048 bit)
                Modulus:
                    00:ae:6d:da:cc:71:df:85:ef:5d:40:15:a4:a9:ca:
                    33:be:10:68:0e:e7:90:8e:01:d3:26:75:34:70:a3:
                    d0:c5:12:1e:16:8d:76:01:78:83:29:1e:2c:3d:c3:
                    00:93:1f:9f:2d:59:05:a7:f4:d3:86:b5:13:ea:18:
                    98:8a:be:d4:fc:dd:5c:9f:b6:7d:64:97:22:8a:85:
                    9f:61:1f:68:d9:26:81:e4:8e:5d:e9:32:d3:f1:b1:
                    7e:46:7e:1e:b4:49:3c:28:a3:c8:5c:ac:90:50:23:
                    08:50:f1:52:82:a0:5f:ba:d2:c8:c7:67:aa:9c:b1:
                    2d:84:d2:73:55:3d:89:e6:29:2c:74:d4:98:60:a5:
                    58:3e:c1:e1:92:e5:5b:24:62:65:60:c5:21:0d:71:
                    58:c1:08:53:12:6a:cf:7f:e8:fc:38:c7:a9:fb:74:
                    76:d7:f7:16:64:85:48:5c:7a:29:f0:c1:af:8e:ac:
                    bc:5f:8e:88:fd:a3:ea:65:0b:be:d8:b0:bd:e8:6f:
                    bd:ee:24:23:6b:68:09:6e:4d:51:cb:67:1a:7f:94:
                    09:45:95:8b:b1:7b:dd:4d:80:9b:e5:ec:13:db:dd:
                    ea:df:80:e8:c7:3f:38:dd:e3:30:c3:df:82:37:7a:
                    cd:00:44:28:28:64:7a:07:90:27:73:35:29:92:b8:
                    94:55
                Exponent: 65537 (0x10001)
        X509v3 extensions:
            X509v3 Subject Key Identifier: 
                BD:4C:AD:2D:B2:C7:8B:1B:F9:BC:8E:3C:74:F2:49:88:34:1D:2D:AD
            X509v3 Authority Key Identifier: 
                keyid:27:8E:67:11:74:C3:26:1D:3F:ED:33:63:B3:A4:D8:1D:30:E5:E8:D5
                DirName:/C=US/ST=Montana/L=Bozeman/O=Sawtooth/OU=Consulting/CN=www.wolfssl.com/emailAddress=info@wolfssl.com
                serial:5E:BA:A4:F4:B1:F7:48:25:E3:5F:9B:DA:A1:13:ED:D5:2B:03:67:15

            X509v3 Basic Constraints: 
                CA:TRUE, pathlen:2
            X509v3 Key Usage: 
                Certificate Sign, CRL Sign
    Signature Algorithm: sha256WithRSAEncryption
         be:27:31:df:48:89:02:00:f6:fd:81:f2:4e:c2:a2:ae:35:6c:
         d3:f4:61:9c:f9:05:1d:eb:af:91:da:ce:24:28:97:f7:ab:93:
         c3:b8:96:e5:d2:f1:78:eb:8e:01:08:f3:a3:fa:7b:59:22:cb:
         57:5b:21:2a:d7:3d:ac:05:2a:b0:e3:d8:de:21:c2:e2:ff:49:
         75:8a:b1:85:18:3f:31:79:d3:53:9e:e9:e9:98:c2:8f:6a:d3:
         12:28:37:60:04:75:dd:32:6d:6e:7b:38:1f:f4:cc:f6:d5:cb:
         82:34:90:76:23:93:da:82:31:7e:6e:c5:77:50:1a:21:c0:cd:
         69:ac:b1:ab:c7:d0:e4:a8:a2:87:c7:c7:2c:d0:fa:1f:12:5a:
         1b:b6:cf:4c:ed:32:99:a0:f5:be:7f:d6:8d:40:71:f0:72:0b:
         ce:9e:51:e5:16:f4:d7:7e:93:4d:9a:87:bd:64:21:ac:33:01:
         97:1a:22:8d:5b:ca:52:c7:12:67:f8:ee:10:0e:24:84:4d:9a:
         c0:cd:55:a6:60:b2:9b:44:02:eb:a3:42:70:b9:17:3d:eb:1a:
         02:e4:06:92:f3:7f:12:e2:b5:8b:6b:75:8f:3e:f8:a8:fd:cd:
         1e:06:c1:d0:27:b9:d6:73:7b:18:67:db:f7:88:d6:7f:dc:49:
         14:20:24:f9
-----BEGIN CERTIFICATE-----
MIIEzDCCA7SgAwIBAgIBZDANBgkqhkiG9w0BAQsFADCBlDELMAkGA1UEBhMCVVMx
EDAOBgNVBAgMB01vbnRhbmExEDAOBgNVBAcMB0JvemVtYW4xETAPBgNVBAoMCFNh
d3Rvb3RoMRMwEQYDVQQLDApDb25zdWx0aW5nMRgwFgYDVQQDDA93d3cud29sZnNz
bC5jb20xHzAdBgkqhkiG9w0BCQEWEGluZm9Ad29sZnNzbC5jb20wHhcNMjEwMTI5
MDc0OTE4WhcNMjMxMDI2MDc0OTE4WjCBoTELMAkGA1UEBhMCVVMxEzARBgNVBAgM
Cldhc2hpbmd0b24xEDAOBgNVBAcMB1NlYXR0bGUxFTATBgNVBAoMDHdvbGZTU0wg
SW5jLjEUMBIGA1UECwwLRW5naW5lZXJpbmcxHTAbBgNVBAMMFGNoYWluSi1JQ0E0
LXBhdGhsZW4yMR8wHQYJKoZIhvcNAQkBFhBpbmZvQHdvbGZzc2wuY29tMIIBIjAN
BgkqhkiG9w0BAQEFAAOCAQ8AMIIBCgKCAQEArm3azHHfhe9dQBWkqcozvhBoDueQ
jgHTJnU0cKPQxRIeFo12AXiDKR4sPcMAkx+fLVkFp/TThrUT6hiYir7U/N1cn7Z9
ZJciioWfYR9o2SaB5I5d6TLT8bF+Rn4etEk8KKPIXKyQUCMIUPFSgqBfutLIx2eq
nLEthNJzVT2J5iksdNSYYKVYPsHhkuVbJGJlYMUhDXFYwQhTEmrPf+j8OMep+3R2
1/cWZIVIXHop8MGvjqy8X46I/aPqZQu+2LC96G+97iQja2gJbk1Ry2caf5QJRZWL
sXvdTYCb5ewT293q34Doxz843eMww9+CN3rNAEQoKGR6B5AnczUpkriUVQIDAQAB
o4IBGDCCARQwHQYDVR0OBBYEFL1MrS2yx4sb+byOPHTySYg0HS2tMIHUBgNVHSME
gcwwgcmAFCeOZxF0wyYdP+0zY7Ok2B0w5ejVoYGapIGXMIGUMQswCQYDVQQGEwJV
UzEQMA4GA1UECAwHTW9udGFuYTEQMA4GA1UEBwwHQm96ZW1hbjERMA8GA1UECgwI
U2F3dG9vdGgxEzARBgNVBAsMCkNvbnN1bHRpbmcxGDAWBgNVBAMMD3d3dy53b2xm
c3NsLmNvbTEfMB0GCSqGSIb3DQEJARYQaW5mb0B3b2xmc3NsLmNvbYIUXrqk9LH3
SCXjX5vaoRPt1SsDZxUwDwYDVR0TBAgwBgEB/wIBAjALBgNVHQ8EBAMCAQYwDQYJ
KoZIhvcNAQELBQADggEBAL4nMd9IiQIA9v2B8k7Coq41bNP0YZz5BR3rr5HaziQo
l/erk8O4luXS8XjrjgEI86P6e1kiy1dbISrXPawFKrDj2N4hwuL/SXWKsYUYPzF5
01Oe6emYwo9q0xIoN2AEdd0ybW57OB/0zPbVy4I0kHYjk9qCMX5uxXdQGiHAzWms
savH0OSooofHxyzQ+h8SWhu2z0ztMpmg9b5/1o1AcfByC86eUeUW9Nd+k02ah71k
IawzAZcaIo1bylLHEmf47hAOJIRNmsDNVaZgsptEAuujQnC5Fz3rGgLkBpLzfxLi
tYtrdY8++Kj9zR4GwdAnudZzexhn2/eI1n/cSRQgJPk=
-----END CERTIFICATE-----
