Certificate:
    Data:
        Version: 3 (0x2)
        Serial Number: 100 (0x64)
    Signature Algorithm: sha256WithRSAEncryption
        Issuer: C = US, ST = Washington, L = Seattle, O = wolfSSL Inc., OU = Engineering, CN = chainG-ICA6-pathlen10, emailAddress = info@wolfssl.com
        Validity
            Not Before: Jan 29 07:49:15 2021 GMT
            Not After : Oct 26 07:49:15 2023 GMT
        Subject: C = US, ST = Washington, L = Seattle, O = wolfSSL Inc., OU = Engineering, CN = chainG-ICA5-pathlen20, emailAddress = info@wolfssl.com
        Subject Public Key Info:
            Public Key Algorithm: rsaEncryption
                Public-Key: (2048 bit)
                Modulus:
                    00:c9:fc:09:eb:b2:b8:51:32:aa:98:f4:ab:eb:2d:
                    0c:1d:3d:dd:b2:ac:25:05:f4:ca:2c:02:e6:a2:42:
                    84:d5:90:5f:33:9c:b1:43:da:45:18:00:1d:13:25:
                    52:7a:13:28:67:6e:5d:3d:a3:84:79:00:25:95:23:
                    6a:17:37:f0:d3:8d:ed:ee:af:9a:8d:a9:69:fe:2d:
                    83:50:3f:07:ec:65:72:34:18:f5:cf:9e:cf:44:74:
                    4a:81:61:cf:5d:c4:f8:69:bf:83:7a:22:a7:8a:a6:
                    68:75:b5:2a:8e:15:ab:83:23:8d:83:0b:b2:aa:9c:
                    14:00:13:f0:ae:10:a8:b7:88:32:f6:51:fe:d2:e6:
                    43:fb:f9:4d:07:ff:c1:b6:f2:18:01:ba:78:b1:02:
                    9e:31:f8:e2:c2:72:96:75:ba:0c:ee:94:c8:fe:52:
                    c3:81:e8:50:d6:2c:da:48:fe:1a:bf:36:77:46:a4:
                    a4:97:9c:f7:7b:62:e6:f9:1a:52:ee:85:d9:44:96:
                    19:14:f0:3d:b0:c9:32:7f:d8:ba:4d:a0:ad:ac:2b:
                    91:65:8f:01:f7:b8:67:5c:4c:1d:69:7d:2b:69:91:
                    d4:89:e9:92:65:30:50:3c:a6:5b:c6:c1:f7:a6:c1:
                    29:6d:72:6c:2e:e5:8c:26:d6:6b:24:30:91:a4:19:
                    50:7b
                Exponent: 65537 (0x10001)
        X509v3 extensions:
            X509v3 Subject Key Identifier: 
                AB:E6:7F:88:54:A1:33:51:EA:F3:E8:77:10:4F:B8:CA:78:E4:43:12
            X509v3 Authority Key Identifier: 
                keyid:07:4D:A2:8B:27:19:8E:A4:9B:A5:8A:9E:9A:69:FA:A7:58:8F:99:61
                DirName:/C=US/ST=Washington/L=Seattle/O=wolfSSL Inc./OU=Engineering/CN=chainG-ICA7-pathlen100/emailAddress=info@wolfssl.com
                serial:64

            X509v3 Basic Constraints: 
                CA:TRUE, pathlen:20
            X509v3 Key Usage: 
                Certificate Sign, CRL Sign
    Signature Algorithm: sha256WithRSAEncryption
         11:17:7a:48:35:51:d8:65:e9:ec:ad:7d:b0:b1:51:ba:fa:15:
         55:d7:13:c7:6b:c6:e1:36:22:da:39:8b:27:b0:3c:8e:7d:93:
         cb:73:99:ac:4f:ef:49:64:fa:2b:dc:50:44:45:e2:30:db:5e:
         e5:9c:ca:63:3b:ef:78:df:37:9a:41:3b:fe:66:a9:8f:63:b6:
         b5:fd:4e:35:4b:ee:15:5e:97:ac:66:09:cb:8e:d6:60:ad:94:
         56:c0:e7:0c:cf:d4:d1:3e:fa:8a:c4:bc:79:8a:4d:07:cd:0b:
         f5:4c:33:83:eb:ee:45:29:eb:7b:49:0a:23:70:e4:77:4c:c2:
         20:b0:c7:b7:50:27:d0:b0:ce:59:ef:a8:f3:98:f6:70:61:ce:
         89:0a:1e:9a:c6:9d:93:6c:04:5f:a1:cb:1f:7f:7c:f0:af:1e:
         e5:11:ec:45:66:fa:06:51:72:65:04:11:9c:e5:05:83:fb:29:
         74:ec:71:e5:f4:2f:be:33:1d:f6:9b:75:c4:47:95:ad:fb:75:
         f5:5e:6a:4b:86:b4:ab:6b:94:4b:96:25:1b:2b:c1:6d:58:5b:
         9c:41:9f:cd:45:3a:5b:e6:b5:66:51:7e:fc:e6:b4:e5:43:53:
         c8:df:64:fa:1a:27:56:b1:40:39:ae:2a:a2:1d:7b:58:8c:c7:
         f5:42:b7:30
-----BEGIN CERTIFICATE-----
MIIE1zCCA7+gAwIBAgIBZDANBgkqhkiG9w0BAQsFADCBojELMAkGA1UEBhMCVVMx
EzARBgNVBAgMCldhc2hpbmd0b24xEDAOBgNVBAcMB1NlYXR0bGUxFTATBgNVBAoM
DHdvbGZTU0wgSW5jLjEUMBIGA1UECwwLRW5naW5lZXJpbmcxHjAcBgNVBAMMFWNo
YWluRy1JQ0E2LXBhdGhsZW4xMDEfMB0GCSqGSIb3DQEJARYQaW5mb0B3b2xmc3Ns
LmNvbTAeFw0yMTAxMjkwNzQ5MTVaFw0yMzEwMjYwNzQ5MTVaMIGiMQswCQYDVQQG
EwJVUzETMBEGA1UECAwKV2FzaGluZ3RvbjEQMA4GA1UEBwwHU2VhdHRsZTEVMBMG
A1UECgwMd29sZlNTTCBJbmMuMRQwEgYDVQQLDAtFbmdpbmVlcmluZzEeMBwGA1UE
AwwVY2hhaW5HLUlDQTUtcGF0aGxlbjIwMR8wHQYJKoZIhvcNAQkBFhBpbmZvQHdv
bGZzc2wuY29tMIIBIjANBgkqhkiG9w0BAQEFAAOCAQ8AMIIBCgKCAQEAyfwJ67K4
UTKqmPSr6y0MHT3dsqwlBfTKLALmokKE1ZBfM5yxQ9pFGAAdEyVSehMoZ25dPaOE
eQAllSNqFzfw043t7q+ajalp/i2DUD8H7GVyNBj1z57PRHRKgWHPXcT4ab+DeiKn
iqZodbUqjhWrgyONgwuyqpwUABPwrhCot4gy9lH+0uZD+/lNB//BtvIYAbp4sQKe
MfjiwnKWdboM7pTI/lLDgehQ1izaSP4avzZ3RqSkl5z3e2Lm+RpS7oXZRJYZFPA9
sMkyf9i6TaCtrCuRZY8B97hnXEwdaX0raZHUiemSZTBQPKZbxsH3psEpbXJsLuWM
JtZrJDCRpBlQewIDAQABo4IBFDCCARAwHQYDVR0OBBYEFKvmf4hUoTNR6vPodxBP
uMp45EMSMIHQBgNVHSMEgcgwgcWAFAdNoosnGY6km6WKnppp+qdYj5lhoYGppIGm
MIGjMQswCQYDVQQGEwJVUzETMBEGA1UECAwKV2FzaGluZ3RvbjEQMA4GA1UEBwwH
U2VhdHRsZTEVMBMGA1UECgwMd29sZlNTTCBJbmMuMRQwEgYDVQQLDAtFbmdpbmVl
cmluZzEfMB0GA1UEAwwWY2hhaW5HLUlDQTctcGF0aGxlbjEwMDEfMB0GCSqGSIb3
DQEJARYQaW5mb0B3b2xmc3NsLmNvbYIBZDAPBgNVHRMECDAGAQH/AgEUMAsGA1Ud
DwQEAwIBBjANBgkqhkiG9w0BAQsFAAOCAQEAERd6SDVR2GXp7K19sLFRuvoVVdcT
x2vG4TYi2jmLJ7A8jn2Ty3OZrE/vSWT6K9xQREXiMNte5ZzKYzvveN83mkE7/map
j2O2tf1ONUvuFV6XrGYJy47WYK2UVsDnDM/U0T76isS8eYpNB80L9Uwzg+vuRSnr
e0kKI3Dkd0zCILDHt1An0LDOWe+o85j2cGHOiQoemsadk2wEX6HLH3988K8e5RHs
RWb6BlFyZQQRnOUFg/spdOxx5fQvvjMd9pt1xEeVrft19V5qS4a0q2uUS5YlGyvB
bVhbnEGfzUU6W+a1ZlF+/Oa05UNTyN9k+honVrFAOa4qoh17WIzH9UK3MA==
-----END CERTIFICATE-----
