Certificate:
    Data:
        Version: 3 (0x2)
        Serial Number: 100 (0x64)
    Signature Algorithm: sha256WithRSAEncryption
        Issuer: C = US, ST = Washington, L = Seattle, O = wolfSSL Inc., OU = Engineering, CN = chainH-ICA4-pathlen2, emailAddress = info@wolfssl.com
        Validity
            Not Before: Jan 29 07:49:16 2021 GMT
            Not After : Oct 26 07:49:16 2023 GMT
        Subject: C = US, ST = Washington, L = Seattle, O = wolfSSL Inc., OU = Engineering, CN = chainH-ICA3-pathlen2, emailAddress = info@wolfssl.com
        Subject Public Key Info:
            Public Key Algorithm: rsaEncryption
                Public-Key: (2048 bit)
                Modulus:
                    00:d7:5a:da:c2:53:67:b3:57:9f:13:de:90:da:d5:
                    26:6a:fc:cb:0d:71:c2:2e:38:41:83:bc:47:9a:58:
                    03:1a:aa:a6:c2:36:cc:54:8e:96:b7:b3:60:86:db:
                    c8:1a:59:fc:44:f8:21:c0:63:f0:f8:3f:a9:d6:1f:
                    ab:e1:c6:b9:6f:48:ef:01:9f:61:f9:77:94:6c:fd:
                    7e:57:c8:ce:e8:f9:b5:26:3f:99:f5:b2:63:3a:16:
                    76:d4:8c:d1:d2:eb:52:42:d1:bf:25:b2:2f:66:c9:
                    f2:81:90:be:07:2d:8c:a4:22:5d:ca:e0:a9:da:f2:
                    ce:42:f0:29:be:48:6b:d9:d4:b8:87:85:84:07:9a:
                    eb:1f:83:ff:53:d4:73:27:e1:f5:e8:08:fa:01:f4:
                    13:44:5d:3b:07:e5:1e:ff:51:af:e5:6e:10:0a:35:
                    73:dc:61:43:fc:7b:fe:ea:9b:a5:17:fd:b9:0d:e8:
                    e3:88:62:ff:48:a3:ec:bd:25:cf:aa:dd:6c:20:de:
                    16:d5:0b:0c:6c:2d:a1:37:0a:66:da:33:2f:ca:00:
                    9f:70:1a:75:79:54:10:45:1d:0a:0f:db:f3:38:ff:
                    0c:81:1e:05:a8:b4:25:c7:d4:a6:65:c9:e8:3a:d4:
                    bb:cb:b1:84:cf:d7:84:ae:83:68:c5:b1:4e:43:25:
                    23:15
                Exponent: 65537 (0x10001)
        X509v3 extensions:
            X509v3 Subject Key Identifier: 
                AF:69:CD:24:E7:38:37:88:98:5E:47:38:62:A7:D3:1C:A1:B5:58:E5
            X509v3 Authority Key Identifier: 
                keyid:1A:D9:90:58:C9:BD:81:A3:8D:B7:97:FE:16:3E:80:1A:50:84:2D:FB
                DirName:/C=US/ST=Montana/L=Bozeman/O=Sawtooth/OU=Consulting/CN=www.wolfssl.com/emailAddress=info@wolfssl.com
                serial:64

            X509v3 Basic Constraints: 
                CA:TRUE, pathlen:2
            X509v3 Key Usage: 
                Certificate Sign, CRL Sign
    Signature Algorithm: sha256WithRSAEncryption
         49:2c:41:20:c0:0a:9d:1e:b7:11:99:cd:dc:29:8f:bd:93:15:
         f5:fa:da:05:29:df:ca:11:24:00:27:c9:96:85:d3:66:3f:51:
         9d:e3:88:e1:07:25:a7:e8:c9:ce:6a:c6:bd:6e:9d:8b:c3:9d:
         3b:da:e5:a6:c8:44:0a:65:61:0f:89:c4:2a:fc:29:12:f1:01:
         0c:84:3a:f2:c6:05:d4:95:1e:92:62:d4:cf:b9:f4:aa:9d:f1:
         b1:a2:ce:a0:ab:47:a9:47:88:71:c5:f4:af:c1:05:ca:a1:65:
         94:7b:d7:10:8c:92:28:65:3b:21:aa:6d:af:e4:73:cb:2d:c7:
         45:bd:44:f1:f7:59:74:a1:2a:5a:0c:8a:14:66:0a:9b:a0:80:
         fc:6c:d6:4b:b8:6c:d2:9b:dd:c1:2f:11:6b:9e:73:f1:37:ed:
         58:57:ed:9f:bf:45:9b:42:2b:58:47:59:31:41:c3:55:96:55:
         71:fc:01:81:1e:c7:7b:67:31:97:bd:f3:57:a4:43:e3:86:4f:
         c8:65:90:85:3b:da:7e:a6:ab:6f:bf:47:3f:31:d7:65:f9:5c:
         8c:fe:52:7e:4e:71:f2:00:1e:ae:5c:bf:12:27:f0:17:ed:2b:
         92:a4:13:e1:a7:b5:cc:e0:01:95:0d:36:ea:c5:29:4e:39:7f:
         63:15:76:20
-----BEGIN CERTIFICATE-----
MIIExjCCA66gAwIBAgIBZDANBgkqhkiG9w0BAQsFADCBoTELMAkGA1UEBhMCVVMx
EzARBgNVBAgMCldhc2hpbmd0b24xEDAOBgNVBAcMB1NlYXR0bGUxFTATBgNVBAoM
DHdvbGZTU0wgSW5jLjEUMBIGA1UECwwLRW5naW5lZXJpbmcxHTAbBgNVBAMMFGNo
YWluSC1JQ0E0LXBhdGhsZW4yMR8wHQYJKoZIhvcNAQkBFhBpbmZvQHdvbGZzc2wu
Y29tMB4XDTIxMDEyOTA3NDkxNloXDTIzMTAyNjA3NDkxNlowgaExCzAJBgNVBAYT
AlVTMRMwEQYDVQQIDApXYXNoaW5ndG9uMRAwDgYDVQQHDAdTZWF0dGxlMRUwEwYD
VQQKDAx3b2xmU1NMIEluYy4xFDASBgNVBAsMC0VuZ2luZWVyaW5nMR0wGwYDVQQD
DBRjaGFpbkgtSUNBMy1wYXRobGVuMjEfMB0GCSqGSIb3DQEJARYQaW5mb0B3b2xm
c3NsLmNvbTCCASIwDQYJKoZIhvcNAQEBBQADggEPADCCAQoCggEBANda2sJTZ7NX
nxPekNrVJmr8yw1xwi44QYO8R5pYAxqqpsI2zFSOlrezYIbbyBpZ/ET4IcBj8Pg/
qdYfq+HGuW9I7wGfYfl3lGz9flfIzuj5tSY/mfWyYzoWdtSM0dLrUkLRvyWyL2bJ
8oGQvgctjKQiXcrgqdryzkLwKb5Ia9nUuIeFhAea6x+D/1PUcyfh9egI+gH0E0Rd
OwflHv9Rr+VuEAo1c9xhQ/x7/uqbpRf9uQ3o44hi/0ij7L0lz6rdbCDeFtULDGwt
oTcKZtozL8oAn3AadXlUEEUdCg/b8zj/DIEeBai0JcfUpmXJ6DrUu8uxhM/XhK6D
aMWxTkMlIxUCAwEAAaOCAQUwggEBMB0GA1UdDgQWBBSvac0k5zg3iJheRzhip9Mc
obVY5TCBwQYDVR0jBIG5MIG2gBQa2ZBYyb2Bo423l/4WPoAaUIQt+6GBmqSBlzCB
lDELMAkGA1UEBhMCVVMxEDAOBgNVBAgMB01vbnRhbmExEDAOBgNVBAcMB0JvemVt
YW4xETAPBgNVBAoMCFNhd3Rvb3RoMRMwEQYDVQQLDApDb25zdWx0aW5nMRgwFgYD
VQQDDA93d3cud29sZnNzbC5jb20xHzAdBgkqhkiG9w0BCQEWEGluZm9Ad29sZnNz
bC5jb22CAWQwDwYDVR0TBAgwBgEB/wIBAjALBgNVHQ8EBAMCAQYwDQYJKoZIhvcN
AQELBQADggEBAEksQSDACp0etxGZzdwpj72TFfX62gUp38oRJAAnyZaF02Y/UZ3j
iOEHJafoyc5qxr1unYvDnTva5abIRAplYQ+JxCr8KRLxAQyEOvLGBdSVHpJi1M+5
9Kqd8bGizqCrR6lHiHHF9K/BBcqhZZR71xCMkihlOyGqba/kc8stx0W9RPH3WXSh
KloMihRmCpuggPxs1ku4bNKb3cEvEWuec/E37VhX7Z+/RZtCK1hHWTFBw1WWVXH8
AYEex3tnMZe981ekQ+OGT8hlkIU72n6mq2+/Rz8x12X5XIz+Un5OcfIAHq5cvxIn
8BftK5KkE+GntczgAZUNNurFKU45f2MVdiA=
-----END CERTIFICATE-----
