Certificate:
    Data:
        Version: 3 (0x2)
        Serial Number: 101 (0x65)
    Signature Algorithm: sha256WithRSAEncryption
        Issuer: C = US, ST = Washington, L = Seattle, O = wolfSSL Inc., OU = Engineering, CN = chainC-ICA1-pathlen1, emailAddress = info@wolfssl.com
        Validity
            Not Before: Jan 29 07:49:12 2021 GMT
            Not After : Oct 26 07:49:12 2023 GMT
        Subject: C = US, ST = Washington, L = Seattle, O = wolfSSL Inc., OU = Engineering, CN = chainC-entity, emailAddress = info@wolfssl.com
        Subject Public Key Info:
            Public Key Algorithm: rsaEncryption
                Public-Key: (2048 bit)
                Modulus:
                    00:aa:0a:ef:cf:4a:48:ae:11:07:a2:02:df:62:e1:
                    df:0f:eb:5b:0b:b5:93:1f:35:ca:b6:89:87:2c:96:
                    c9:53:e7:ea:00:58:dd:f2:66:6d:03:b3:82:cc:5b:
                    f9:02:ec:16:32:67:7c:67:38:8f:4e:cb:d6:89:ab:
                    29:5d:3b:a7:e1:88:a9:03:7d:7a:41:93:04:11:4b:
                    e6:d8:ef:35:47:32:63:01:40:b9:fa:6f:e2:9e:52:
                    58:48:d1:ea:8e:26:62:3f:e3:e8:27:39:5c:ac:4f:
                    74:21:60:52:0e:b6:8e:27:63:31:69:7c:8f:9e:2e:
                    87:dc:f1:31:1c:ab:70:92:99:73:a0:81:01:9b:1e:
                    24:52:d1:96:bf:2f:94:56:1b:4a:f0:d4:46:91:1a:
                    5a:83:fe:a4:28:f2:aa:22:cb:72:22:2d:4a:47:7a:
                    1c:c3:ab:16:56:d3:47:06:0a:35:81:98:65:c2:85:
                    cd:44:66:20:2d:8a:bf:74:2f:c1:a7:39:2e:15:95:
                    00:1a:d7:65:dc:f8:93:f8:be:4d:80:f5:31:10:5e:
                    23:c9:c9:77:e1:9d:a5:18:fe:e6:5e:27:f4:a4:04:
                    0e:6f:8c:6d:c4:71:b5:bf:47:52:36:0e:19:7f:d8:
                    ad:1f:03:a6:01:44:4c:fd:0a:0e:36:4c:aa:44:25:
                    ba:5f
                Exponent: 65537 (0x10001)
        X509v3 extensions:
            X509v3 Subject Key Identifier: 
                1F:35:01:D7:3B:63:1D:A7:EE:65:78:C0:6C:14:DE:F7:D7:E3:4E:02
            X509v3 Authority Key Identifier: 
                keyid:3D:1E:01:03:58:F7:7B:56:39:F7:55:31:D7:17:0B:CA:07:CD:1A:37
                DirName:/C=US/ST=Montana/L=Bozeman/O=Sawtooth/OU=Consulting/CN=www.wolfssl.com/emailAddress=info@wolfssl.com
                serial:64

            X509v3 Basic Constraints: 
                CA:FALSE
    Signature Algorithm: sha256WithRSAEncryption
         d5:f6:b6:75:b7:a3:ba:93:fc:eb:fb:cc:3f:ee:57:72:7b:a9:
         87:3c:99:94:c5:62:85:6d:43:00:d2:88:61:88:09:90:fe:f8:
         0b:f0:fe:bd:b8:d4:c9:7c:f2:6a:a5:74:ed:af:12:2b:f4:69:
         e4:09:4c:21:bf:3a:fd:36:05:f6:47:91:94:ed:bb:ab:f5:80:
         5b:3a:24:72:a5:31:de:e7:16:98:e2:bc:23:13:5d:dd:60:cc:
         43:28:e3:3f:8b:27:5f:0b:41:fb:91:4c:f7:7b:2f:fb:72:bb:
         0c:9d:a0:45:9b:70:df:4d:35:d3:c5:75:49:e4:94:ef:c2:f4:
         7d:48:5f:a4:f8:e3:20:df:e7:79:f3:b2:c5:e3:7b:d8:ca:9d:
         10:0d:96:d6:ac:f7:0e:c2:20:8a:78:78:34:7a:91:1a:01:75:
         f6:98:d2:d3:8a:cb:de:27:ad:1a:e8:8c:24:e2:fd:c2:36:2a:
         ca:88:63:6c:c0:f9:42:fd:a6:c5:2a:15:2f:0c:11:c0:a7:5f:
         ba:1b:83:70:7f:1b:20:74:66:e9:da:86:f7:6e:32:7e:45:17:
         72:29:03:54:16:70:34:a1:10:6f:c9:e5:00:58:3b:51:9f:8f:
         9e:be:b6:16:41:84:4d:8c:5d:e6:12:bb:ac:ea:3b:0c:a3:a0:
         f3:cc:d3:b0
-----BEGIN CERTIFICATE-----
MIIEqjCCA5KgAwIBAgIBZTANBgkqhkiG9w0BAQsFADCBoTELMAkGA1UEBhMCVVMx
EzARBgNVBAgMCldhc2hpbmd0b24xEDAOBgNVBAcMB1NlYXR0bGUxFTATBgNVBAoM
DHdvbGZTU0wgSW5jLjEUMBIGA1UECwwLRW5naW5lZXJpbmcxHTAbBgNVBAMMFGNo
YWluQy1JQ0ExLXBhdGhsZW4xMR8wHQYJKoZIhvcNAQkBFhBpbmZvQHdvbGZzc2wu
Y29tMB4XDTIxMDEyOTA3NDkxMloXDTIzMTAyNjA3NDkxMlowgZoxCzAJBgNVBAYT
AlVTMRMwEQYDVQQIDApXYXNoaW5ndG9uMRAwDgYDVQQHDAdTZWF0dGxlMRUwEwYD
VQQKDAx3b2xmU1NMIEluYy4xFDASBgNVBAsMC0VuZ2luZWVyaW5nMRYwFAYDVQQD
DA1jaGFpbkMtZW50aXR5MR8wHQYJKoZIhvcNAQkBFhBpbmZvQHdvbGZzc2wuY29t
MIIBIjANBgkqhkiG9w0BAQEFAAOCAQ8AMIIBCgKCAQEAqgrvz0pIrhEHogLfYuHf
D+tbC7WTHzXKtomHLJbJU+fqAFjd8mZtA7OCzFv5AuwWMmd8ZziPTsvWiaspXTun
4YipA316QZMEEUvm2O81RzJjAUC5+m/inlJYSNHqjiZiP+PoJzlcrE90IWBSDraO
J2MxaXyPni6H3PExHKtwkplzoIEBmx4kUtGWvy+UVhtK8NRGkRpag/6kKPKqIsty
Ii1KR3ocw6sWVtNHBgo1gZhlwoXNRGYgLYq/dC/BpzkuFZUAGtdl3PiT+L5NgPUx
EF4jycl34Z2lGP7mXif0pAQOb4xtxHG1v0dSNg4Zf9itHwOmAURM/QoONkyqRCW6
XwIDAQABo4HxMIHuMB0GA1UdDgQWBBQfNQHXO2Mdp+5leMBsFN731+NOAjCBwQYD
VR0jBIG5MIG2gBQ9HgEDWPd7Vjn3VTHXFwvKB80aN6GBmqSBlzCBlDELMAkGA1UE
BhMCVVMxEDAOBgNVBAgMB01vbnRhbmExEDAOBgNVBAcMB0JvemVtYW4xETAPBgNV
BAoMCFNhd3Rvb3RoMRMwEQYDVQQLDApDb25zdWx0aW5nMRgwFgYDVQQDDA93d3cu
d29sZnNzbC5jb20xHzAdBgkqhkiG9w0BCQEWEGluZm9Ad29sZnNzbC5jb22CAWQw
CQYDVR0TBAIwADANBgkqhkiG9w0BAQsFAAOCAQEA1fa2dbejupP86/vMP+5Xcnup
hzyZlMVihW1DANKIYYgJkP74C/D+vbjUyXzyaqV07a8SK/Rp5AlMIb86/TYF9keR
lO27q/WAWzokcqUx3ucWmOK8IxNd3WDMQyjjP4snXwtB+5FM93sv+3K7DJ2gRZtw
300108V1SeSU78L0fUhfpPjjIN/nefOyxeN72MqdEA2W1qz3DsIginh4NHqRGgF1
9pjS04rL3ietGuiMJOL9wjYqyohjbMD5Qv2mxSoVLwwRwKdfuhuDcH8bIHRm6dqG
924yfkUXcikDVBZwNKEQb8nlAFg7UZ+Pnr62FkGETYxd5hK7rOo7DKOg88zTsA==
-----END CERTIFICATE-----
Certificate:
    Data:
        Version: 3 (0x2)
        Serial Number: 100 (0x64)
    Signature Algorithm: sha256WithRSAEncryption
        Issuer: C = US, ST = Montana, L = Bozeman, O = Sawtooth, OU = Consulting, CN = www.wolfssl.com, emailAddress = info@wolfssl.com
        Validity
            Not Before: Jan 29 07:49:12 2021 GMT
            Not After : Oct 26 07:49:12 2023 GMT
        Subject: C = US, ST = Washington, L = Seattle, O = wolfSSL Inc., OU = Engineering, CN = chainC-ICA1-pathlen1, emailAddress = info@wolfssl.com
        Subject Public Key Info:
            Public Key Algorithm: rsaEncryption
                Public-Key: (2048 bit)
                Modulus:
                    00:f1:56:83:77:e0:2d:22:b0:6a:26:f6:58:71:3a:
                    04:0b:d7:4e:26:c7:16:a1:50:e3:a8:10:1b:c9:74:
                    3e:eb:6f:b1:10:e1:48:ca:18:5e:ff:af:b1:99:1e:
                    23:8c:a6:7b:a8:c6:e0:4f:0a:0e:34:6f:a1:ed:d2:
                    74:0c:4d:01:e9:64:85:cf:00:b4:f6:12:a4:6d:b2:
                    1d:05:98:15:33:a8:4f:f0:2b:27:c9:eb:e9:b6:b4:
                    70:5f:c9:cd:78:14:94:c8:27:81:9c:9a:fa:82:cf:
                    13:5d:8e:94:62:76:a8:b5:ab:4b:a0:ed:24:cf:83:
                    60:dd:8f:d6:4e:56:16:20:7c:5f:c4:35:85:96:63:
                    e0:b7:de:99:3b:00:4d:ee:21:3e:4f:fd:e1:7e:61:
                    ef:24:c7:64:16:63:fa:54:70:8a:54:b4:48:62:9d:
                    8f:7e:13:08:25:57:3f:56:2c:bb:88:a5:ce:82:aa:
                    d6:7b:31:9b:3a:37:f0:3f:dc:50:9d:b7:8c:af:c4:
                    81:44:b1:c6:c9:50:1d:b2:f0:0c:49:c8:c8:e5:cb:
                    06:cb:8d:f4:9e:af:0e:65:d1:72:39:2f:87:1b:b6:
                    27:71:fe:ef:c0:13:e0:48:2d:bb:27:e2:28:90:92:
                    20:f4:2e:f3:05:be:33:1c:cb:1f:ef:d6:d5:b7:b5:
                    6c:b9
                Exponent: 65537 (0x10001)
        X509v3 extensions:
            X509v3 Subject Key Identifier: 
                3D:1E:01:03:58:F7:7B:56:39:F7:55:31:D7:17:0B:CA:07:CD:1A:37
            X509v3 Authority Key Identifier: 
                keyid:27:8E:67:11:74:C3:26:1D:3F:ED:33:63:B3:A4:D8:1D:30:E5:E8:D5
                DirName:/C=US/ST=Montana/L=Bozeman/O=Sawtooth/OU=Consulting/CN=www.wolfssl.com/emailAddress=info@wolfssl.com
                serial:5E:BA:A4:F4:B1:F7:48:25:E3:5F:9B:DA:A1:13:ED:D5:2B:03:67:15

            X509v3 Basic Constraints: 
                CA:TRUE, pathlen:1
            X509v3 Key Usage: 
                Certificate Sign, CRL Sign
    Signature Algorithm: sha256WithRSAEncryption
         6b:81:a1:a6:db:21:b8:79:b5:e7:09:7d:a6:1d:ca:50:e6:81:
         3f:96:e0:b2:9c:c6:27:2b:c9:d2:4f:43:2c:e0:a3:ea:90:e2:
         67:77:17:0e:8e:dc:ed:b2:31:6e:c0:df:9a:b6:72:82:d8:0e:
         ba:14:95:53:23:a8:e9:3c:c9:44:8f:b1:33:8a:3e:c1:15:21:
         b6:2e:74:ed:81:0a:18:1d:78:39:b7:7c:fc:47:f6:5b:c0:53:
         7a:bf:b6:34:7c:44:56:19:d6:f2:7a:b4:b6:8b:23:0c:a8:e5:
         92:3c:37:8c:7f:bf:75:f5:c8:5a:11:09:ba:3f:6e:b6:7f:75:
         fa:3d:b3:3b:94:fe:14:18:25:a2:77:ac:f8:41:3c:90:fa:3b:
         22:68:b0:ba:16:aa:96:76:b8:82:03:d0:95:10:a7:05:d8:22:
         bc:84:99:2b:92:1b:48:bc:f2:b6:da:55:6e:c6:5e:5f:5a:e2:
         33:a0:ba:39:a1:19:aa:50:db:9e:c9:67:20:a7:34:ce:ed:f2:
         f9:4f:ce:a8:1d:de:b5:89:53:71:d6:24:bf:bb:1e:e8:71:45:
         17:dc:d9:0e:ab:d5:04:e6:59:94:1e:c8:59:1d:24:23:a2:34:
         44:cf:da:51:df:ac:25:2f:94:9e:c3:30:25:7a:1c:4e:a0:98:
         fa:32:27:66
-----BEGIN CERTIFICATE-----
MIIEzDCCA7SgAwIBAgIBZDANBgkqhkiG9w0BAQsFADCBlDELMAkGA1UEBhMCVVMx
EDAOBgNVBAgMB01vbnRhbmExEDAOBgNVBAcMB0JvemVtYW4xETAPBgNVBAoMCFNh
d3Rvb3RoMRMwEQYDVQQLDApDb25zdWx0aW5nMRgwFgYDVQQDDA93d3cud29sZnNz
bC5jb20xHzAdBgkqhkiG9w0BCQEWEGluZm9Ad29sZnNzbC5jb20wHhcNMjEwMTI5
MDc0OTEyWhcNMjMxMDI2MDc0OTEyWjCBoTELMAkGA1UEBhMCVVMxEzARBgNVBAgM
Cldhc2hpbmd0b24xEDAOBgNVBAcMB1NlYXR0bGUxFTATBgNVBAoMDHdvbGZTU0wg
SW5jLjEUMBIGA1UECwwLRW5naW5lZXJpbmcxHTAbBgNVBAMMFGNoYWluQy1JQ0Ex
LXBhdGhsZW4xMR8wHQYJKoZIhvcNAQkBFhBpbmZvQHdvbGZzc2wuY29tMIIBIjAN
BgkqhkiG9w0BAQEFAAOCAQ8AMIIBCgKCAQEA8VaDd+AtIrBqJvZYcToEC9dOJscW
oVDjqBAbyXQ+62+xEOFIyhhe/6+xmR4jjKZ7qMbgTwoONG+h7dJ0DE0B6WSFzwC0
9hKkbbIdBZgVM6hP8CsnyevptrRwX8nNeBSUyCeBnJr6gs8TXY6UYnaotatLoO0k
z4Ng3Y/WTlYWIHxfxDWFlmPgt96ZOwBN7iE+T/3hfmHvJMdkFmP6VHCKVLRIYp2P
fhMIJVc/Viy7iKXOgqrWezGbOjfwP9xQnbeMr8SBRLHGyVAdsvAMScjI5csGy430
nq8OZdFyOS+HG7Yncf7vwBPgSC27J+IokJIg9C7zBb4zHMsf79bVt7VsuQIDAQAB
o4IBGDCCARQwHQYDVR0OBBYEFD0eAQNY93tWOfdVMdcXC8oHzRo3MIHUBgNVHSME
gcwwgcmAFCeOZxF0wyYdP+0zY7Ok2B0w5ejVoYGapIGXMIGUMQswCQYDVQQGEwJV
UzEQMA4GA1UECAwHTW9udGFuYTEQMA4GA1UEBwwHQm96ZW1hbjERMA8GA1UECgwI
U2F3dG9vdGgxEzARBgNVBAsMCkNvbnN1bHRpbmcxGDAWBgNVBAMMD3d3dy53b2xm
c3NsLmNvbTEfMB0GCSqGSIb3DQEJARYQaW5mb0B3b2xmc3NsLmNvbYIUXrqk9LH3
SCXjX5vaoRPt1SsDZxUwDwYDVR0TBAgwBgEB/wIBATALBgNVHQ8EBAMCAQYwDQYJ
KoZIhvcNAQELBQADggEBAGuBoabbIbh5tecJfaYdylDmgT+W4LKcxicrydJPQyzg
o+qQ4md3Fw6O3O2yMW7A35q2coLYDroUlVMjqOk8yUSPsTOKPsEVIbYudO2BChgd
eDm3fPxH9lvAU3q/tjR8RFYZ1vJ6tLaLIwyo5ZI8N4x/v3X1yFoRCbo/brZ/dfo9
szuU/hQYJaJ3rPhBPJD6OyJosLoWqpZ2uIID0JUQpwXYIryEmSuSG0i88rbaVW7G
Xl9a4jOgujmhGapQ257JZyCnNM7t8vlPzqgd3rWJU3HWJL+7HuhxRRfc2Q6r1QTm
WZQeyFkdJCOiNETP2lHfrCUvlJ7DMCV6HE6gmPoyJ2Y=
-----END CERTIFICATE-----
