Certificate:
    Data:
        Version: 3 (0x2)
        Serial Number: 101 (0x65)
    Signature Algorithm: sha256WithRSAEncryption
        Issuer: C = US, ST = Washington, L = Seattle, O = wolfSSL Inc., OU = Engineering, CN = chainH-ICA1-pathlen0, emailAddress = info@wolfssl.com
        Validity
            Not Before: Jan 29 07:49:17 2021 GMT
            Not After : Oct 26 07:49:17 2023 GMT
        Subject: C = US, ST = Washington, L = Seattle, O = wolfSSL Inc., OU = Engineering, CN = chainH-entity, emailAddress = info@wolfssl.com
        Subject Public Key Info:
            Public Key Algorithm: rsaEncryption
                Public-Key: (2048 bit)
                Modulus:
                    00:cf:84:a4:de:19:42:57:01:75:d7:dc:e1:9b:a2:
                    e6:f0:0a:c6:0a:ef:e0:6f:26:30:92:05:1c:4c:f5:
                    54:d1:95:23:31:f2:f6:10:0a:b4:7f:6f:29:b2:1e:
                    ad:d5:d1:b0:a5:f2:7d:a3:c5:04:d7:6d:4c:7a:51:
                    24:d4:ed:d2:a2:54:d3:c1:e7:87:2b:91:6e:c9:18:
                    f0:41:f1:6d:b1:99:0d:49:63:dc:55:50:c8:a5:e1:
                    d6:e7:cb:d7:d8:cd:85:59:14:9c:04:5f:7d:69:ff:
                    3b:47:5e:16:18:02:46:3a:cb:69:66:8f:0e:19:50:
                    b0:d9:b4:d5:98:b1:97:0f:b8:f8:11:80:59:e2:b6:
                    23:0e:02:1f:d6:61:1a:fe:fd:d0:6b:d8:7a:d7:1f:
                    58:01:e2:4b:b0:82:2e:a6:3d:9b:72:d3:ea:d2:48:
                    42:fd:18:0e:cb:1e:61:c7:b9:d3:a0:e6:3d:4a:0f:
                    39:73:d0:2d:48:05:05:57:65:c1:55:c9:c8:f1:69:
                    8e:72:bd:19:70:92:08:e6:fd:54:5f:52:47:e1:6d:
                    5a:be:6d:c0:84:3c:19:fc:e1:3d:59:2a:31:de:89:
                    1f:d0:10:2d:4b:4e:df:f0:17:ed:73:69:a5:03:a2:
                    29:73:59:32:6d:a3:12:14:73:c6:3a:ec:7a:a1:f9:
                    46:87
                Exponent: 65537 (0x10001)
        X509v3 extensions:
            X509v3 Subject Key Identifier: 
                CF:70:1F:7C:F9:E3:CC:46:21:D0:D4:F0:3C:A3:AE:EE:AB:B6:0F:5B
            X509v3 Authority Key Identifier: 
                keyid:A2:B8:B2:83:78:10:4B:2D:08:98:8E:71:D9:C6:7C:45:A6:8D:E5:00
                DirName:/C=US/ST=Washington/L=Seattle/O=wolfSSL Inc./OU=Engineering/CN=chainH-ICA2-pathlen2/emailAddress=info@wolfssl.com
                serial:64

            X509v3 Basic Constraints: 
                CA:FALSE
    Signature Algorithm: sha256WithRSAEncryption
         95:a0:1d:09:d2:42:c2:62:63:8f:6f:17:2b:7e:92:ba:0b:9b:
         bc:47:fb:55:fb:c1:44:17:70:8b:cf:24:a7:49:a8:31:40:de:
         c4:ac:3e:a5:b3:f2:65:7e:1a:01:56:3a:4a:43:16:64:1a:f5:
         36:93:1c:91:06:d8:e3:40:88:f2:35:14:c3:b3:f5:84:0e:83:
         0d:ab:27:7d:b2:01:8f:c6:3a:45:31:b3:3d:a0:25:b7:ff:d4:
         1a:e0:73:8f:2f:25:ea:e3:64:03:25:41:12:8d:b3:db:03:87:
         7a:b6:2a:04:7a:9e:2a:49:05:85:d6:44:76:67:f6:1d:97:6b:
         00:39:94:c9:41:90:9d:b7:58:86:c4:ae:22:4a:71:e7:b6:a8:
         50:0b:24:8d:3b:84:99:e3:9d:fd:a0:3c:5c:b1:3d:a5:5f:67:
         1a:ca:2c:0f:29:78:d6:20:0a:20:69:76:9e:91:4c:6c:54:93:
         45:a3:58:d1:37:5f:c1:10:d6:a3:7f:bf:4a:ff:43:b8:40:27:
         e8:9d:a9:b2:2b:4d:c1:04:e4:20:4c:b4:01:e6:2b:ee:2e:ba:
         bb:55:b9:6b:cb:fe:63:7a:58:e8:9f:59:9a:5e:01:52:42:9f:
         7a:df:27:4a:a0:fe:3a:4d:dc:16:51:53:58:3b:70:60:a5:bc:
         45:1b:6b:ac
-----BEGIN CERTIFICATE-----
MIIEtzCCA5+gAwIBAgIBZTANBgkqhkiG9w0BAQsFADCBoTELMAkGA1UEBhMCVVMx
EzARBgNVBAgMCldhc2hpbmd0b24xEDAOBgNVBAcMB1NlYXR0bGUxFTATBgNVBAoM
DHdvbGZTU0wgSW5jLjEUMBIGA1UECwwLRW5naW5lZXJpbmcxHTAbBgNVBAMMFGNo
YWluSC1JQ0ExLXBhdGhsZW4wMR8wHQYJKoZIhvcNAQkBFhBpbmZvQHdvbGZzc2wu
Y29tMB4XDTIxMDEyOTA3NDkxN1oXDTIzMTAyNjA3NDkxN1owgZoxCzAJBgNVBAYT
AlVTMRMwEQYDVQQIDApXYXNoaW5ndG9uMRAwDgYDVQQHDAdTZWF0dGxlMRUwEwYD
VQQKDAx3b2xmU1NMIEluYy4xFDASBgNVBAsMC0VuZ2luZWVyaW5nMRYwFAYDVQQD
DA1jaGFpbkgtZW50aXR5MR8wHQYJKoZIhvcNAQkBFhBpbmZvQHdvbGZzc2wuY29t
MIIBIjANBgkqhkiG9w0BAQEFAAOCAQ8AMIIBCgKCAQEAz4Sk3hlCVwF119zhm6Lm
8ArGCu/gbyYwkgUcTPVU0ZUjMfL2EAq0f28psh6t1dGwpfJ9o8UE121MelEk1O3S
olTTweeHK5FuyRjwQfFtsZkNSWPcVVDIpeHW58vX2M2FWRScBF99af87R14WGAJG
OstpZo8OGVCw2bTVmLGXD7j4EYBZ4rYjDgIf1mEa/v3Qa9h61x9YAeJLsIIupj2b
ctPq0khC/RgOyx5hx7nToOY9Sg85c9AtSAUFV2XBVcnI8WmOcr0ZcJII5v1UX1JH
4W1avm3AhDwZ/OE9WSox3okf0BAtS07f8Bftc2mlA6Ipc1kybaMSFHPGOux6oflG
hwIDAQABo4H+MIH7MB0GA1UdDgQWBBTPcB98+ePMRiHQ1PA8o67uq7YPWzCBzgYD
VR0jBIHGMIHDgBSiuLKDeBBLLQiYjnHZxnxFpo3lAKGBp6SBpDCBoTELMAkGA1UE
BhMCVVMxEzARBgNVBAgMCldhc2hpbmd0b24xEDAOBgNVBAcMB1NlYXR0bGUxFTAT
BgNVBAoMDHdvbGZTU0wgSW5jLjEUMBIGA1UECwwLRW5naW5lZXJpbmcxHTAbBgNV
BAMMFGNoYWluSC1JQ0EyLXBhdGhsZW4yMR8wHQYJKoZIhvcNAQkBFhBpbmZvQHdv
bGZzc2wuY29tggFkMAkGA1UdEwQCMAAwDQYJKoZIhvcNAQELBQADggEBAJWgHQnS
QsJiY49vFyt+kroLm7xH+1X7wUQXcIvPJKdJqDFA3sSsPqWz8mV+GgFWOkpDFmQa
9TaTHJEG2ONAiPI1FMOz9YQOgw2rJ32yAY/GOkUxsz2gJbf/1Brgc48vJerjZAMl
QRKNs9sDh3q2KgR6nipJBYXWRHZn9h2XawA5lMlBkJ23WIbEriJKcee2qFALJI07
hJnjnf2gPFyxPaVfZxrKLA8peNYgCiBpdp6RTGxUk0WjWNE3X8EQ1qN/v0r/Q7hA
J+idqbIrTcEE5CBMtAHmK+4uurtVuWvL/mN6WOifWZpeAVJCn3rfJ0qg/jpN3BZR
U1g7cGClvEUba6w=
-----END CERTIFICATE-----
Certificate:
    Data:
        Version: 3 (0x2)
        Serial Number: 100 (0x64)
    Signature Algorithm: sha256WithRSAEncryption
        Issuer: C = US, ST = Washington, L = Seattle, O = wolfSSL Inc., OU = Engineering, CN = chainH-ICA2-pathlen2, emailAddress = info@wolfssl.com
        Validity
            Not Before: Jan 29 07:49:17 2021 GMT
            Not After : Oct 26 07:49:17 2023 GMT
        Subject: C = US, ST = Washington, L = Seattle, O = wolfSSL Inc., OU = Engineering, CN = chainH-ICA1-pathlen0, emailAddress = info@wolfssl.com
        Subject Public Key Info:
            Public Key Algorithm: rsaEncryption
                Public-Key: (2048 bit)
                Modulus:
                    00:a0:65:54:f9:3a:79:99:dd:be:9c:4a:ba:78:63:
                    c9:12:37:3f:bb:11:b4:32:be:6d:d0:8b:0d:b8:dc:
                    9b:dd:c4:e7:4e:e2:13:9b:9d:09:b6:57:a8:da:61:
                    aa:60:8d:32:60:5b:71:56:5e:46:6c:e7:63:b2:a4:
                    50:c3:4f:05:e4:a8:cc:eb:e8:c2:91:07:3f:22:9a:
                    9d:85:70:49:9e:cb:9c:01:77:04:a7:19:56:32:d3:
                    30:b6:21:35:00:ed:27:fb:51:19:eb:e0:3e:c9:f1:
                    5d:20:7c:fd:1a:4b:40:e1:6c:53:78:98:01:db:3d:
                    80:a9:68:b8:89:be:3a:91:b4:db:26:6f:b0:31:04:
                    3f:f9:da:c3:6d:0e:dc:bf:65:6c:fe:38:66:e6:bc:
                    77:47:7a:c8:06:d7:68:cd:fe:7e:b1:cd:5d:c6:8d:
                    af:e7:4b:76:23:aa:3d:7b:c6:c0:5a:19:33:bd:a4:
                    73:66:ee:80:f9:2b:99:49:2c:0b:b6:0a:12:36:eb:
                    b9:22:c6:87:b0:4a:8a:07:a7:91:4a:09:d2:b6:fb:
                    aa:ce:2c:f0:b2:0a:e9:99:0b:69:8c:2f:47:66:62:
                    14:c5:2e:d3:87:c7:62:9a:ad:2c:9e:cb:59:6f:0d:
                    67:0b:87:db:ad:c0:8d:ad:13:dc:f7:aa:ac:b7:04:
                    c5:1d
                Exponent: 65537 (0x10001)
        X509v3 extensions:
            X509v3 Subject Key Identifier: 
                A2:B8:B2:83:78:10:4B:2D:08:98:8E:71:D9:C6:7C:45:A6:8D:E5:00
            X509v3 Authority Key Identifier: 
                keyid:52:2A:A8:59:E3:C3:CF:D6:23:49:F2:97:7C:48:CD:88:D2:82:95:AD
                DirName:/C=US/ST=Washington/L=Seattle/O=wolfSSL Inc./OU=Engineering/CN=chainH-ICA3-pathlen2/emailAddress=info@wolfssl.com
                serial:64

            X509v3 Basic Constraints: 
                CA:TRUE, pathlen:0
            X509v3 Key Usage: 
                Certificate Sign, CRL Sign
    Signature Algorithm: sha256WithRSAEncryption
         e1:1e:7e:b0:6b:49:5c:c6:7e:d8:b4:d4:0f:c3:e7:22:d5:fc:
         4a:1d:73:5f:c6:4a:30:3d:21:5f:95:67:9c:f7:1f:92:fb:29:
         1f:98:6c:02:58:83:51:ac:02:7e:56:ee:e0:ac:e2:93:5a:2a:
         7e:05:80:f7:8a:59:a4:88:64:f3:ad:cd:63:04:66:0e:fd:bf:
         b9:dd:fb:2e:69:71:8a:e8:76:51:8a:ab:77:e9:82:38:57:34:
         e3:9f:e7:41:cf:9e:15:a2:42:1c:05:09:af:97:cf:d4:e3:ca:
         d6:9e:21:ed:77:6c:3c:09:a7:58:cd:4e:90:a0:ec:8b:9f:53:
         30:a3:e1:c8:95:7a:f9:12:90:93:f0:ad:85:30:29:44:44:95:
         44:1b:d6:d0:98:9c:d8:41:a3:23:78:36:6d:32:b7:72:f3:44:
         46:2a:81:65:85:9a:2d:ac:5d:f7:ae:bf:1e:8c:24:07:b6:d2:
         d1:fb:02:58:ac:33:1a:de:cb:66:23:f8:af:e5:11:a0:e6:4a:
         99:db:54:b3:df:82:6c:ee:c7:6b:83:8b:a2:1c:ce:b2:03:59:
         d9:0d:13:85:11:a2:ad:a0:09:52:5d:a2:4b:e5:4d:d3:4f:32:
         90:94:9a:3f:63:3e:ff:aa:be:69:25:0d:c1:e4:3f:53:c9:67:
         3e:b0:5c:e6
-----BEGIN CERTIFICATE-----
MIIE0zCCA7ugAwIBAgIBZDANBgkqhkiG9w0BAQsFADCBoTELMAkGA1UEBhMCVVMx
EzARBgNVBAgMCldhc2hpbmd0b24xEDAOBgNVBAcMB1NlYXR0bGUxFTATBgNVBAoM
DHdvbGZTU0wgSW5jLjEUMBIGA1UECwwLRW5naW5lZXJpbmcxHTAbBgNVBAMMFGNo
YWluSC1JQ0EyLXBhdGhsZW4yMR8wHQYJKoZIhvcNAQkBFhBpbmZvQHdvbGZzc2wu
Y29tMB4XDTIxMDEyOTA3NDkxN1oXDTIzMTAyNjA3NDkxN1owgaExCzAJBgNVBAYT
AlVTMRMwEQYDVQQIDApXYXNoaW5ndG9uMRAwDgYDVQQHDAdTZWF0dGxlMRUwEwYD
VQQKDAx3b2xmU1NMIEluYy4xFDASBgNVBAsMC0VuZ2luZWVyaW5nMR0wGwYDVQQD
DBRjaGFpbkgtSUNBMS1wYXRobGVuMDEfMB0GCSqGSIb3DQEJARYQaW5mb0B3b2xm
c3NsLmNvbTCCASIwDQYJKoZIhvcNAQEBBQADggEPADCCAQoCggEBAKBlVPk6eZnd
vpxKunhjyRI3P7sRtDK+bdCLDbjcm93E507iE5udCbZXqNphqmCNMmBbcVZeRmzn
Y7KkUMNPBeSozOvowpEHPyKanYVwSZ7LnAF3BKcZVjLTMLYhNQDtJ/tRGevgPsnx
XSB8/RpLQOFsU3iYAds9gKlouIm+OpG02yZvsDEEP/naw20O3L9lbP44Zua8d0d6
yAbXaM3+frHNXcaNr+dLdiOqPXvGwFoZM72kc2bugPkrmUksC7YKEjbruSLGh7BK
igenkUoJ0rb7qs4s8LIK6ZkLaYwvR2ZiFMUu04fHYpqtLJ7LWW8NZwuH263Aja0T
3PeqrLcExR0CAwEAAaOCARIwggEOMB0GA1UdDgQWBBSiuLKDeBBLLQiYjnHZxnxF
po3lADCBzgYDVR0jBIHGMIHDgBRSKqhZ48PP1iNJ8pd8SM2I0oKVraGBp6SBpDCB
oTELMAkGA1UEBhMCVVMxEzARBgNVBAgMCldhc2hpbmd0b24xEDAOBgNVBAcMB1Nl
YXR0bGUxFTATBgNVBAoMDHdvbGZTU0wgSW5jLjEUMBIGA1UECwwLRW5naW5lZXJp
bmcxHTAbBgNVBAMMFGNoYWluSC1JQ0EzLXBhdGhsZW4yMR8wHQYJKoZIhvcNAQkB
FhBpbmZvQHdvbGZzc2wuY29tggFkMA8GA1UdEwQIMAYBAf8CAQAwCwYDVR0PBAQD
AgEGMA0GCSqGSIb3DQEBCwUAA4IBAQDhHn6wa0lcxn7YtNQPw+ci1fxKHXNfxkow
PSFflWec9x+S+ykfmGwCWINRrAJ+Vu7grOKTWip+BYD3ilmkiGTzrc1jBGYO/b+5
3fsuaXGK6HZRiqt36YI4VzTjn+dBz54VokIcBQmvl8/U48rWniHtd2w8CadYzU6Q
oOyLn1Mwo+HIlXr5EpCT8K2FMClERJVEG9bQmJzYQaMjeDZtMrdy80RGKoFlhZot
rF33rr8ejCQHttLR+wJYrDMa3stmI/iv5RGg5kqZ21Sz34Js7sdrg4uiHM6yA1nZ
DROFEaKtoAlSXaJL5U3TTzKQlJo/Yz7/qr5pJQ3B5D9TyWc+sFzm
-----END CERTIFICATE-----
Certificate:
    Data:
        Version: 3 (0x2)
        Serial Number: 100 (0x64)
    Signature Algorithm: sha256WithRSAEncryption
        Issuer: C = US, ST = Washington, L = Seattle, O = wolfSSL Inc., OU = Engineering, CN = chainH-ICA3-pathlen2, emailAddress = info@wolfssl.com
        Validity
            Not Before: Jan 29 07:49:17 2021 GMT
            Not After : Oct 26 07:49:17 2023 GMT
        Subject: C = US, ST = Washington, L = Seattle, O = wolfSSL Inc., OU = Engineering, CN = chainH-ICA2-pathlen2, emailAddress = info@wolfssl.com
        Subject Public Key Info:
            Public Key Algorithm: rsaEncryption
                Public-Key: (2048 bit)
                Modulus:
                    00:e1:8f:37:08:de:4e:cd:87:9b:74:27:bd:27:f7:
                    b7:8f:00:ec:b3:7b:33:47:e0:64:a2:9c:ac:6a:81:
                    88:29:95:50:99:ea:79:d9:cb:0a:b1:a4:c3:d1:47:
                    03:c7:d8:2b:1f:6b:74:4f:e4:3b:f5:a2:aa:b3:52:
                    4e:49:27:36:9e:4f:3f:c9:c4:cd:8a:48:9c:42:0f:
                    5a:23:a9:d6:b3:4c:4b:8d:eb:c1:e3:6a:c7:1f:9b:
                    88:02:90:a7:4b:7d:44:07:f0:31:31:43:59:75:f4:
                    ce:31:67:d2:62:f8:c8:a5:ab:f4:5b:10:09:5a:22:
                    07:c3:b9:35:52:10:c8:e0:0a:b4:d3:e3:7b:8e:dc:
                    e7:c6:cb:f1:f5:35:37:cf:b1:11:cb:67:4b:19:9e:
                    9f:be:3d:33:e6:a2:93:1a:ba:2e:68:35:f0:94:7d:
                    88:1f:92:07:bb:7a:55:dc:10:79:fa:7e:3b:04:53:
                    7e:0c:13:1f:f0:23:9c:23:3d:01:6b:2a:d0:c2:4e:
                    d3:6f:d4:f3:fc:12:0f:e8:9e:ef:f3:ee:8c:57:26:
                    c6:07:90:b4:47:65:94:54:fb:bc:49:df:ea:d3:f4:
                    05:da:49:d7:45:bb:14:ff:a8:b7:3f:3d:d8:9d:d1:
                    22:59:1d:53:cb:94:66:df:b8:b4:bb:bd:9c:0e:55:
                    c1:33
                Exponent: 65537 (0x10001)
        X509v3 extensions:
            X509v3 Subject Key Identifier: 
                52:2A:A8:59:E3:C3:CF:D6:23:49:F2:97:7C:48:CD:88:D2:82:95:AD
            X509v3 Authority Key Identifier: 
                keyid:AF:69:CD:24:E7:38:37:88:98:5E:47:38:62:A7:D3:1C:A1:B5:58:E5
                DirName:/C=US/ST=Washington/L=Seattle/O=wolfSSL Inc./OU=Engineering/CN=chainH-ICA4-pathlen2/emailAddress=info@wolfssl.com
                serial:64

            X509v3 Basic Constraints: 
                CA:TRUE, pathlen:2
            X509v3 Key Usage: 
                Certificate Sign, CRL Sign
    Signature Algorithm: sha256WithRSAEncryption
         1f:b8:27:0b:3c:4e:47:c7:66:af:01:26:0f:b2:09:7e:fe:68:
         26:be:e8:9a:3d:10:6d:4d:df:e9:06:88:d5:ca:69:1f:c6:48:
         27:07:80:06:4f:d2:ea:3b:2c:65:ac:aa:34:28:d5:57:e7:45:
         03:a8:4b:15:01:1a:46:20:56:87:7c:c7:36:24:de:df:90:f2:
         59:a1:5a:a5:06:25:34:83:da:18:c9:ad:05:ab:6f:b7:bc:c5:
         d5:99:8f:64:53:c8:ef:d1:4a:c7:12:2a:fc:68:d7:78:07:0c:
         64:eb:63:75:8b:5b:58:83:c8:79:20:00:4a:0c:23:67:a9:66:
         96:c8:a0:c1:57:95:e3:40:e9:05:a2:dd:ba:36:5a:af:3a:0d:
         77:40:88:fa:81:e8:50:e4:ee:1c:8b:18:62:df:78:83:45:1f:
         ce:e8:41:ce:0d:2a:d7:12:74:86:67:ae:12:1f:f7:80:94:c8:
         94:52:3f:4a:d3:56:d1:42:38:e0:5f:44:cc:36:2d:76:bf:d3:
         7c:68:8f:b4:2e:d8:aa:ac:74:a5:7f:e3:b6:46:dd:03:39:e0:
         65:42:2f:17:14:f3:86:3b:6b:75:d8:90:55:bb:b5:30:af:c2:
         20:61:7c:8b:cc:de:1b:c7:86:df:76:6d:6d:bc:53:fd:ed:0f:
         37:ff:9c:81
-----BEGIN CERTIFICATE-----
MIIE0zCCA7ugAwIBAgIBZDANBgkqhkiG9w0BAQsFADCBoTELMAkGA1UEBhMCVVMx
EzARBgNVBAgMCldhc2hpbmd0b24xEDAOBgNVBAcMB1NlYXR0bGUxFTATBgNVBAoM
DHdvbGZTU0wgSW5jLjEUMBIGA1UECwwLRW5naW5lZXJpbmcxHTAbBgNVBAMMFGNo
YWluSC1JQ0EzLXBhdGhsZW4yMR8wHQYJKoZIhvcNAQkBFhBpbmZvQHdvbGZzc2wu
Y29tMB4XDTIxMDEyOTA3NDkxN1oXDTIzMTAyNjA3NDkxN1owgaExCzAJBgNVBAYT
AlVTMRMwEQYDVQQIDApXYXNoaW5ndG9uMRAwDgYDVQQHDAdTZWF0dGxlMRUwEwYD
VQQKDAx3b2xmU1NMIEluYy4xFDASBgNVBAsMC0VuZ2luZWVyaW5nMR0wGwYDVQQD
DBRjaGFpbkgtSUNBMi1wYXRobGVuMjEfMB0GCSqGSIb3DQEJARYQaW5mb0B3b2xm
c3NsLmNvbTCCASIwDQYJKoZIhvcNAQEBBQADggEPADCCAQoCggEBAOGPNwjeTs2H
m3QnvSf3t48A7LN7M0fgZKKcrGqBiCmVUJnqednLCrGkw9FHA8fYKx9rdE/kO/Wi
qrNSTkknNp5PP8nEzYpInEIPWiOp1rNMS43rweNqxx+biAKQp0t9RAfwMTFDWXX0
zjFn0mL4yKWr9FsQCVoiB8O5NVIQyOAKtNPje47c58bL8fU1N8+xEctnSxmen749
M+aikxq6Lmg18JR9iB+SB7t6VdwQefp+OwRTfgwTH/AjnCM9AWsq0MJO02/U8/wS
D+ie7/PujFcmxgeQtEdllFT7vEnf6tP0BdpJ10W7FP+otz892J3RIlkdU8uUZt+4
tLu9nA5VwTMCAwEAAaOCARIwggEOMB0GA1UdDgQWBBRSKqhZ48PP1iNJ8pd8SM2I
0oKVrTCBzgYDVR0jBIHGMIHDgBSvac0k5zg3iJheRzhip9McobVY5aGBp6SBpDCB
oTELMAkGA1UEBhMCVVMxEzARBgNVBAgMCldhc2hpbmd0b24xEDAOBgNVBAcMB1Nl
YXR0bGUxFTATBgNVBAoMDHdvbGZTU0wgSW5jLjEUMBIGA1UECwwLRW5naW5lZXJp
bmcxHTAbBgNVBAMMFGNoYWluSC1JQ0E0LXBhdGhsZW4yMR8wHQYJKoZIhvcNAQkB
FhBpbmZvQHdvbGZzc2wuY29tggFkMA8GA1UdEwQIMAYBAf8CAQIwCwYDVR0PBAQD
AgEGMA0GCSqGSIb3DQEBCwUAA4IBAQAfuCcLPE5Hx2avASYPsgl+/mgmvuiaPRBt
Td/pBojVymkfxkgnB4AGT9LqOyxlrKo0KNVX50UDqEsVARpGIFaHfMc2JN7fkPJZ
oVqlBiU0g9oYya0Fq2+3vMXVmY9kU8jv0UrHEir8aNd4Bwxk62N1i1tYg8h5IABK
DCNnqWaWyKDBV5XjQOkFot26NlqvOg13QIj6gehQ5O4cixhi33iDRR/O6EHODSrX
EnSGZ64SH/eAlMiUUj9K01bRQjjgX0TMNi12v9N8aI+0LtiqrHSlf+O2Rt0DOeBl
Qi8XFPOGO2t12JBVu7Uwr8IgYXyLzN4bx4bfdm1tvFP97Q83/5yB
-----END CERTIFICATE-----
Certificate:
    Data:
        Version: 3 (0x2)
        Serial Number: 100 (0x64)
    Signature Algorithm: sha256WithRSAEncryption
        Issuer: C = US, ST = Washington, L = Seattle, O = wolfSSL Inc., OU = Engineering, CN = chainH-ICA4-pathlen2, emailAddress = info@wolfssl.com
        Validity
            Not Before: Jan 29 07:49:16 2021 GMT
            Not After : Oct 26 07:49:16 2023 GMT
        Subject: C = US, ST = Washington, L = Seattle, O = wolfSSL Inc., OU = Engineering, CN = chainH-ICA3-pathlen2, emailAddress = info@wolfssl.com
        Subject Public Key Info:
            Public Key Algorithm: rsaEncryption
                Public-Key: (2048 bit)
                Modulus:
                    00:d7:5a:da:c2:53:67:b3:57:9f:13:de:90:da:d5:
                    26:6a:fc:cb:0d:71:c2:2e:38:41:83:bc:47:9a:58:
                    03:1a:aa:a6:c2:36:cc:54:8e:96:b7:b3:60:86:db:
                    c8:1a:59:fc:44:f8:21:c0:63:f0:f8:3f:a9:d6:1f:
                    ab:e1:c6:b9:6f:48:ef:01:9f:61:f9:77:94:6c:fd:
                    7e:57:c8:ce:e8:f9:b5:26:3f:99:f5:b2:63:3a:16:
                    76:d4:8c:d1:d2:eb:52:42:d1:bf:25:b2:2f:66:c9:
                    f2:81:90:be:07:2d:8c:a4:22:5d:ca:e0:a9:da:f2:
                    ce:42:f0:29:be:48:6b:d9:d4:b8:87:85:84:07:9a:
                    eb:1f:83:ff:53:d4:73:27:e1:f5:e8:08:fa:01:f4:
                    13:44:5d:3b:07:e5:1e:ff:51:af:e5:6e:10:0a:35:
                    73:dc:61:43:fc:7b:fe:ea:9b:a5:17:fd:b9:0d:e8:
                    e3:88:62:ff:48:a3:ec:bd:25:cf:aa:dd:6c:20:de:
                    16:d5:0b:0c:6c:2d:a1:37:0a:66:da:33:2f:ca:00:
                    9f:70:1a:75:79:54:10:45:1d:0a:0f:db:f3:38:ff:
                    0c:81:1e:05:a8:b4:25:c7:d4:a6:65:c9:e8:3a:d4:
                    bb:cb:b1:84:cf:d7:84:ae:83:68:c5:b1:4e:43:25:
                    23:15
                Exponent: 65537 (0x10001)
        X509v3 extensions:
            X509v3 Subject Key Identifier: 
                AF:69:CD:24:E7:38:37:88:98:5E:47:38:62:A7:D3:1C:A1:B5:58:E5
            X509v3 Authority Key Identifier: 
                keyid:1A:D9:90:58:C9:BD:81:A3:8D:B7:97:FE:16:3E:80:1A:50:84:2D:FB
                DirName:/C=US/ST=Montana/L=Bozeman/O=Sawtooth/OU=Consulting/CN=www.wolfssl.com/emailAddress=info@wolfssl.com
                serial:64

            X509v3 Basic Constraints: 
                CA:TRUE, pathlen:2
            X509v3 Key Usage: 
                Certificate Sign, CRL Sign
    Signature Algorithm: sha256WithRSAEncryption
         49:2c:41:20:c0:0a:9d:1e:b7:11:99:cd:dc:29:8f:bd:93:15:
         f5:fa:da:05:29:df:ca:11:24:00:27:c9:96:85:d3:66:3f:51:
         9d:e3:88:e1:07:25:a7:e8:c9:ce:6a:c6:bd:6e:9d:8b:c3:9d:
         3b:da:e5:a6:c8:44:0a:65:61:0f:89:c4:2a:fc:29:12:f1:01:
         0c:84:3a:f2:c6:05:d4:95:1e:92:62:d4:cf:b9:f4:aa:9d:f1:
         b1:a2:ce:a0:ab:47:a9:47:88:71:c5:f4:af:c1:05:ca:a1:65:
         94:7b:d7:10:8c:92:28:65:3b:21:aa:6d:af:e4:73:cb:2d:c7:
         45:bd:44:f1:f7:59:74:a1:2a:5a:0c:8a:14:66:0a:9b:a0:80:
         fc:6c:d6:4b:b8:6c:d2:9b:dd:c1:2f:11:6b:9e:73:f1:37:ed:
         58:57:ed:9f:bf:45:9b:42:2b:58:47:59:31:41:c3:55:96:55:
         71:fc:01:81:1e:c7:7b:67:31:97:bd:f3:57:a4:43:e3:86:4f:
         c8:65:90:85:3b:da:7e:a6:ab:6f:bf:47:3f:31:d7:65:f9:5c:
         8c:fe:52:7e:4e:71:f2:00:1e:ae:5c:bf:12:27:f0:17:ed:2b:
         92:a4:13:e1:a7:b5:cc:e0:01:95:0d:36:ea:c5:29:4e:39:7f:
         63:15:76:20
-----BEGIN CERTIFICATE-----
MIIExjCCA66gAwIBAgIBZDANBgkqhkiG9w0BAQsFADCBoTELMAkGA1UEBhMCVVMx
EzARBgNVBAgMCldhc2hpbmd0b24xEDAOBgNVBAcMB1NlYXR0bGUxFTATBgNVBAoM
DHdvbGZTU0wgSW5jLjEUMBIGA1UECwwLRW5naW5lZXJpbmcxHTAbBgNVBAMMFGNo
YWluSC1JQ0E0LXBhdGhsZW4yMR8wHQYJKoZIhvcNAQkBFhBpbmZvQHdvbGZzc2wu
Y29tMB4XDTIxMDEyOTA3NDkxNloXDTIzMTAyNjA3NDkxNlowgaExCzAJBgNVBAYT
AlVTMRMwEQYDVQQIDApXYXNoaW5ndG9uMRAwDgYDVQQHDAdTZWF0dGxlMRUwEwYD
VQQKDAx3b2xmU1NMIEluYy4xFDASBgNVBAsMC0VuZ2luZWVyaW5nMR0wGwYDVQQD
DBRjaGFpbkgtSUNBMy1wYXRobGVuMjEfMB0GCSqGSIb3DQEJARYQaW5mb0B3b2xm
c3NsLmNvbTCCASIwDQYJKoZIhvcNAQEBBQADggEPADCCAQoCggEBANda2sJTZ7NX
nxPekNrVJmr8yw1xwi44QYO8R5pYAxqqpsI2zFSOlrezYIbbyBpZ/ET4IcBj8Pg/
qdYfq+HGuW9I7wGfYfl3lGz9flfIzuj5tSY/mfWyYzoWdtSM0dLrUkLRvyWyL2bJ
8oGQvgctjKQiXcrgqdryzkLwKb5Ia9nUuIeFhAea6x+D/1PUcyfh9egI+gH0E0Rd
OwflHv9Rr+VuEAo1c9xhQ/x7/uqbpRf9uQ3o44hi/0ij7L0lz6rdbCDeFtULDGwt
oTcKZtozL8oAn3AadXlUEEUdCg/b8zj/DIEeBai0JcfUpmXJ6DrUu8uxhM/XhK6D
aMWxTkMlIxUCAwEAAaOCAQUwggEBMB0GA1UdDgQWBBSvac0k5zg3iJheRzhip9Mc
obVY5TCBwQYDVR0jBIG5MIG2gBQa2ZBYyb2Bo423l/4WPoAaUIQt+6GBmqSBlzCB
lDELMAkGA1UEBhMCVVMxEDAOBgNVBAgMB01vbnRhbmExEDAOBgNVBAcMB0JvemVt
YW4xETAPBgNVBAoMCFNhd3Rvb3RoMRMwEQYDVQQLDApDb25zdWx0aW5nMRgwFgYD
VQQDDA93d3cud29sZnNzbC5jb20xHzAdBgkqhkiG9w0BCQEWEGluZm9Ad29sZnNz
bC5jb22CAWQwDwYDVR0TBAgwBgEB/wIBAjALBgNVHQ8EBAMCAQYwDQYJKoZIhvcN
AQELBQADggEBAEksQSDACp0etxGZzdwpj72TFfX62gUp38oRJAAnyZaF02Y/UZ3j
iOEHJafoyc5qxr1unYvDnTva5abIRAplYQ+JxCr8KRLxAQyEOvLGBdSVHpJi1M+5
9Kqd8bGizqCrR6lHiHHF9K/BBcqhZZR71xCMkihlOyGqba/kc8stx0W9RPH3WXSh
KloMihRmCpuggPxs1ku4bNKb3cEvEWuec/E37VhX7Z+/RZtCK1hHWTFBw1WWVXH8
AYEex3tnMZe981ekQ+OGT8hlkIU72n6mq2+/Rz8x12X5XIz+Un5OcfIAHq5cvxIn
8BftK5KkE+GntczgAZUNNurFKU45f2MVdiA=
-----END CERTIFICATE-----
Certificate:
    Data:
        Version: 3 (0x2)
        Serial Number: 100 (0x64)
    Signature Algorithm: sha256WithRSAEncryption
        Issuer: C = US, ST = Montana, L = Bozeman, O = Sawtooth, OU = Consulting, CN = www.wolfssl.com, emailAddress = info@wolfssl.com
        Validity
            Not Before: Jan 29 07:49:16 2021 GMT
            Not After : Oct 26 07:49:16 2023 GMT
        Subject: C = US, ST = Washington, L = Seattle, O = wolfSSL Inc., OU = Engineering, CN = chainH-ICA4-pathlen2, emailAddress = info@wolfssl.com
        Subject Public Key Info:
            Public Key Algorithm: rsaEncryption
                Public-Key: (2048 bit)
                Modulus:
                    00:bf:6a:f1:31:45:5c:44:b5:a4:12:53:fb:57:21:
                    1b:c4:a3:1c:6c:2f:fc:02:a3:7e:be:99:a6:9a:34:
                    c6:ca:2a:c6:15:eb:ac:a8:77:e3:5a:35:1b:35:b3:
                    9c:8d:a2:0b:98:10:c9:ef:52:b7:d0:7b:fc:6e:4b:
                    50:58:d5:42:23:3e:97:51:53:cf:c6:34:8e:dc:f5:
                    8d:c7:dd:25:be:0d:da:f7:14:32:6b:db:1a:6b:49:
                    30:3a:5e:f8:ab:99:e0:10:01:c0:67:90:cd:d5:9d:
                    a3:90:f3:8b:00:0d:0d:6d:dc:92:aa:af:ed:c6:92:
                    2b:7e:fe:94:f3:b8:8f:81:0d:67:ab:ae:4d:ae:d3:
                    73:c7:1e:03:e5:78:52:e2:33:da:ac:b8:d3:74:53:
                    92:71:71:cb:51:03:b0:41:ca:02:86:db:ae:d0:94:
                    d6:2c:81:48:e1:a8:c4:c1:0f:ef:fd:87:5c:3f:8d:
                    73:ab:9d:f0:4b:fc:f8:3e:4f:79:f9:f1:cb:63:90:
                    06:e7:c3:a6:0f:78:f2:1a:5e:7d:e8:8c:8f:9c:b7:
                    de:de:9e:35:c5:99:98:9e:93:63:20:06:d2:7c:3d:
                    a3:21:65:dd:c4:b4:63:45:21:d3:3c:f0:96:fe:e8:
                    9b:10:a2:0b:cd:0d:17:21:c7:e9:8d:a7:17:57:30:
                    2a:65
                Exponent: 65537 (0x10001)
        X509v3 extensions:
            X509v3 Subject Key Identifier: 
                1A:D9:90:58:C9:BD:81:A3:8D:B7:97:FE:16:3E:80:1A:50:84:2D:FB
            X509v3 Authority Key Identifier: 
                keyid:27:8E:67:11:74:C3:26:1D:3F:ED:33:63:B3:A4:D8:1D:30:E5:E8:D5
                DirName:/C=US/ST=Montana/L=Bozeman/O=Sawtooth/OU=Consulting/CN=www.wolfssl.com/emailAddress=info@wolfssl.com
                serial:5E:BA:A4:F4:B1:F7:48:25:E3:5F:9B:DA:A1:13:ED:D5:2B:03:67:15

            X509v3 Basic Constraints: 
                CA:TRUE, pathlen:2
            X509v3 Key Usage: 
                Certificate Sign, CRL Sign
    Signature Algorithm: sha256WithRSAEncryption
         3c:f6:78:07:bf:f3:7e:63:63:a9:6c:3c:72:a6:4f:e0:b3:2f:
         02:fe:90:b1:d5:ea:2d:37:9b:2f:c6:42:70:c6:58:3b:98:0b:
         86:d9:a3:6b:53:aa:7e:4a:b1:a7:90:c1:e9:bd:90:53:54:0b:
         02:96:36:f0:3f:cb:ea:5a:4f:af:3d:73:d4:29:93:20:98:a3:
         0a:5b:74:a7:2d:b2:03:11:8f:67:15:07:65:d7:83:10:3a:65:
         03:d0:0f:94:df:fc:60:19:b9:b8:8f:f5:85:dd:24:c9:71:6e:
         fd:35:47:54:c6:6d:55:5f:9f:9f:98:76:4a:99:a1:b2:05:4f:
         dc:4c:8c:89:29:0e:e7:6b:2e:7f:44:27:0a:71:b7:95:1e:c5:
         1b:f0:9e:f4:49:d6:67:33:f8:61:2f:41:d0:e9:2f:19:30:0f:
         b4:51:ef:29:13:5b:0e:87:d1:e9:41:9a:ca:4d:61:47:a6:29:
         cd:55:68:a1:f9:0c:03:52:ff:e7:d7:a2:33:d3:6c:13:a2:42:
         da:8d:f9:ed:17:4a:37:b5:db:f8:67:af:bb:81:dc:28:59:6c:
         5d:a3:0b:81:fd:55:12:41:db:2b:cd:c6:00:4b:8c:b4:13:79:
         77:b6:a5:1f:86:16:a4:3c:31:57:36:d5:ea:fb:d3:9a:6d:ae:
         df:8a:cf:3e
-----BEGIN CERTIFICATE-----
MIIEzDCCA7SgAwIBAgIBZDANBgkqhkiG9w0BAQsFADCBlDELMAkGA1UEBhMCVVMx
EDAOBgNVBAgMB01vbnRhbmExEDAOBgNVBAcMB0JvemVtYW4xETAPBgNVBAoMCFNh
d3Rvb3RoMRMwEQYDVQQLDApDb25zdWx0aW5nMRgwFgYDVQQDDA93d3cud29sZnNz
bC5jb20xHzAdBgkqhkiG9w0BCQEWEGluZm9Ad29sZnNzbC5jb20wHhcNMjEwMTI5
MDc0OTE2WhcNMjMxMDI2MDc0OTE2WjCBoTELMAkGA1UEBhMCVVMxEzARBgNVBAgM
Cldhc2hpbmd0b24xEDAOBgNVBAcMB1NlYXR0bGUxFTATBgNVBAoMDHdvbGZTU0wg
SW5jLjEUMBIGA1UECwwLRW5naW5lZXJpbmcxHTAbBgNVBAMMFGNoYWluSC1JQ0E0
LXBhdGhsZW4yMR8wHQYJKoZIhvcNAQkBFhBpbmZvQHdvbGZzc2wuY29tMIIBIjAN
BgkqhkiG9w0BAQEFAAOCAQ8AMIIBCgKCAQEAv2rxMUVcRLWkElP7VyEbxKMcbC/8
AqN+vpmmmjTGyirGFeusqHfjWjUbNbOcjaILmBDJ71K30Hv8bktQWNVCIz6XUVPP
xjSO3PWNx90lvg3a9xQya9saa0kwOl74q5ngEAHAZ5DN1Z2jkPOLAA0NbdySqq/t
xpIrfv6U87iPgQ1nq65NrtNzxx4D5XhS4jParLjTdFOScXHLUQOwQcoChtuu0JTW
LIFI4ajEwQ/v/YdcP41zq53wS/z4Pk95+fHLY5AG58OmD3jyGl596IyPnLfe3p41
xZmYnpNjIAbSfD2jIWXdxLRjRSHTPPCW/uibEKILzQ0XIcfpjacXVzAqZQIDAQAB
o4IBGDCCARQwHQYDVR0OBBYEFBrZkFjJvYGjjbeX/hY+gBpQhC37MIHUBgNVHSME
gcwwgcmAFCeOZxF0wyYdP+0zY7Ok2B0w5ejVoYGapIGXMIGUMQswCQYDVQQGEwJV
UzEQMA4GA1UECAwHTW9udGFuYTEQMA4GA1UEBwwHQm96ZW1hbjERMA8GA1UECgwI
U2F3dG9vdGgxEzARBgNVBAsMCkNvbnN1bHRpbmcxGDAWBgNVBAMMD3d3dy53b2xm
c3NsLmNvbTEfMB0GCSqGSIb3DQEJARYQaW5mb0B3b2xmc3NsLmNvbYIUXrqk9LH3
SCXjX5vaoRPt1SsDZxUwDwYDVR0TBAgwBgEB/wIBAjALBgNVHQ8EBAMCAQYwDQYJ
KoZIhvcNAQELBQADggEBADz2eAe/835jY6lsPHKmT+CzLwL+kLHV6i03my/GQnDG
WDuYC4bZo2tTqn5KsaeQwem9kFNUCwKWNvA/y+paT689c9QpkyCYowpbdKctsgMR
j2cVB2XXgxA6ZQPQD5Tf/GAZubiP9YXdJMlxbv01R1TGbVVfn5+YdkqZobIFT9xM
jIkpDudrLn9EJwpxt5UexRvwnvRJ1mcz+GEvQdDpLxkwD7RR7ykTWw6H0elBmspN
YUemKc1VaKH5DANS/+fXojPTbBOiQtqN+e0XSje12/hnr7uB3ChZbF2jC4H9VRJB
2yvNxgBLjLQTeXe2pR+GFqQ8MVc21er705ptrt+Kzz4=
-----END CERTIFICATE-----
