Certificate:
    Data:
        Version: 3 (0x2)
        Serial Number: 100 (0x64)
    Signature Algorithm: sha256WithRSAEncryption
        Issuer: C = US, ST = Washington, L = Seattle, O = wolfSSL Inc., OU = Engineering, CN = chainG-ICA4-pathlen5, emailAddress = info@wolfssl.com
        Validity
            Not Before: Jan 29 07:49:15 2021 GMT
            Not After : Oct 26 07:49:15 2023 GMT
        Subject: C = US, ST = Washington, L = Seattle, O = wolfSSL Inc., OU = Engineering, CN = chainG-ICA3-pathlen99, emailAddress = info@wolfssl.com
        Subject Public Key Info:
            Public Key Algorithm: rsaEncryption
                Public-Key: (2048 bit)
                Modulus:
                    00:c1:97:96:77:ba:cd:12:80:52:d4:4b:00:4d:4d:
                    fc:8f:ab:6f:c2:59:2a:0c:4e:45:48:f3:32:f0:e3:
                    bf:58:91:07:6e:1f:35:f2:6d:a8:8d:62:1e:bc:26:
                    d5:80:1f:bc:47:a6:46:be:31:63:75:c5:d9:6c:68:
                    3b:f1:f2:9c:7d:2c:4f:97:45:5e:b5:9f:dd:0d:3a:
                    d4:d4:eb:e1:f1:dc:66:6c:36:a1:e9:90:39:1d:8f:
                    58:d5:ed:01:ea:0e:53:b4:d5:bd:08:71:6a:43:f1:
                    03:cd:5d:13:eb:91:8c:40:61:3c:ed:42:39:ff:19:
                    a4:4e:6b:76:28:05:5c:fc:7a:88:3a:12:c7:24:39:
                    84:99:a2:a3:2c:70:51:98:70:ec:af:6c:c7:05:8e:
                    c8:bd:c8:4f:a0:9e:ea:6b:98:c6:85:ff:a9:ac:08:
                    a6:5c:b1:ec:7f:58:08:0d:c6:d5:f1:ae:e9:68:50:
                    10:d3:25:30:1f:b2:4a:8a:6d:47:58:a9:cd:3e:72:
                    c8:d0:92:59:4f:c7:9e:89:7c:79:85:7c:64:1a:ab:
                    fb:a0:66:26:1f:5e:13:1a:7e:6a:cb:95:fc:a7:c0:
                    8b:0c:57:51:3c:b9:7c:d1:9d:61:e0:89:31:b6:06:
                    12:33:8b:cf:1b:02:0e:27:68:19:53:52:14:5f:b7:
                    7c:57
                Exponent: 65537 (0x10001)
        X509v3 extensions:
            X509v3 Subject Key Identifier: 
                B8:B7:89:E7:36:8E:D1:FF:EA:1B:27:90:78:C3:AE:58:26:BC:86:19
            X509v3 Authority Key Identifier: 
                keyid:6F:4E:97:80:FA:EB:95:F7:60:84:F9:62:D2:43:2D:27:49:E5:6C:71
                DirName:/C=US/ST=Washington/L=Seattle/O=wolfSSL Inc./OU=Engineering/CN=chainG-ICA5-pathlen20/emailAddress=info@wolfssl.com
                serial:64

            X509v3 Basic Constraints: 
                CA:TRUE, pathlen:99
            X509v3 Key Usage: 
                Certificate Sign, CRL Sign
    Signature Algorithm: sha256WithRSAEncryption
         48:ca:65:51:8b:ad:20:f4:b4:7e:9a:ef:1c:e5:d0:e8:33:e9:
         14:75:b1:53:3d:0b:d7:d2:86:90:0d:77:08:6c:50:ee:38:d5:
         84:1b:57:30:7d:64:47:6c:a5:f1:ba:5f:0e:39:2d:c4:d2:4e:
         5e:0d:13:7c:e3:ac:2f:d5:c1:8e:61:50:71:2d:44:3a:09:65:
         18:d5:9a:56:a8:24:5e:64:ab:b1:b4:87:7e:8a:82:cf:16:ed:
         d5:0e:1e:4e:69:de:1a:b2:18:16:aa:8b:96:cc:be:f1:e9:32:
         9e:42:f7:ff:32:08:60:78:e8:6e:66:99:51:04:be:22:90:f8:
         34:0d:c0:b6:27:b6:e7:eb:b7:02:12:aa:f1:cc:f6:7f:08:5b:
         ee:65:1d:bd:65:26:cb:18:47:a1:cc:34:fc:a4:f0:d2:05:fc:
         85:4f:35:69:33:ab:93:21:e9:c5:74:8f:55:f1:2a:0b:84:b9:
         ae:a8:0f:59:cf:0d:39:a5:46:0e:f1:16:af:ea:35:e0:eb:13:
         ad:51:15:69:8d:b9:1d:c5:c7:07:a7:f3:2c:c6:da:f5:09:e7:
         bd:f2:52:a1:6e:aa:ba:5e:e7:2f:df:cc:ab:9c:22:0f:ae:03:
         59:52:39:c7:94:77:f0:0a:03:32:d7:b4:2c:1c:ef:78:2b:c2:
         51:b1:2b:78
-----BEGIN CERTIFICATE-----
MIIE1TCCA72gAwIBAgIBZDANBgkqhkiG9w0BAQsFADCBoTELMAkGA1UEBhMCVVMx
EzARBgNVBAgMCldhc2hpbmd0b24xEDAOBgNVBAcMB1NlYXR0bGUxFTATBgNVBAoM
DHdvbGZTU0wgSW5jLjEUMBIGA1UECwwLRW5naW5lZXJpbmcxHTAbBgNVBAMMFGNo
YWluRy1JQ0E0LXBhdGhsZW41MR8wHQYJKoZIhvcNAQkBFhBpbmZvQHdvbGZzc2wu
Y29tMB4XDTIxMDEyOTA3NDkxNVoXDTIzMTAyNjA3NDkxNVowgaIxCzAJBgNVBAYT
AlVTMRMwEQYDVQQIDApXYXNoaW5ndG9uMRAwDgYDVQQHDAdTZWF0dGxlMRUwEwYD
VQQKDAx3b2xmU1NMIEluYy4xFDASBgNVBAsMC0VuZ2luZWVyaW5nMR4wHAYDVQQD
DBVjaGFpbkctSUNBMy1wYXRobGVuOTkxHzAdBgkqhkiG9w0BCQEWEGluZm9Ad29s
ZnNzbC5jb20wggEiMA0GCSqGSIb3DQEBAQUAA4IBDwAwggEKAoIBAQDBl5Z3us0S
gFLUSwBNTfyPq2/CWSoMTkVI8zLw479YkQduHzXybaiNYh68JtWAH7xHpka+MWN1
xdlsaDvx8px9LE+XRV61n90NOtTU6+Hx3GZsNqHpkDkdj1jV7QHqDlO01b0IcWpD
8QPNXRPrkYxAYTztQjn/GaROa3YoBVz8eog6EsckOYSZoqMscFGYcOyvbMcFjsi9
yE+gnuprmMaF/6msCKZcsex/WAgNxtXxruloUBDTJTAfskqKbUdYqc0+csjQkllP
x56JfHmFfGQaq/ugZiYfXhMafmrLlfynwIsMV1E8uXzRnWHgiTG2BhIzi88bAg4n
aBlTUhRft3xXAgMBAAGjggETMIIBDzAdBgNVHQ4EFgQUuLeJ5zaO0f/qGyeQeMOu
WCa8hhkwgc8GA1UdIwSBxzCBxIAUb06XgPrrlfdghPli0kMtJ0nlbHGhgaikgaUw
gaIxCzAJBgNVBAYTAlVTMRMwEQYDVQQIDApXYXNoaW5ndG9uMRAwDgYDVQQHDAdT
ZWF0dGxlMRUwEwYDVQQKDAx3b2xmU1NMIEluYy4xFDASBgNVBAsMC0VuZ2luZWVy
aW5nMR4wHAYDVQQDDBVjaGFpbkctSUNBNS1wYXRobGVuMjAxHzAdBgkqhkiG9w0B
CQEWEGluZm9Ad29sZnNzbC5jb22CAWQwDwYDVR0TBAgwBgEB/wIBYzALBgNVHQ8E
BAMCAQYwDQYJKoZIhvcNAQELBQADggEBAEjKZVGLrSD0tH6a7xzl0Ogz6RR1sVM9
C9fShpANdwhsUO441YQbVzB9ZEdspfG6Xw45LcTSTl4NE3zjrC/VwY5hUHEtRDoJ
ZRjVmlaoJF5kq7G0h36Kgs8W7dUOHk5p3hqyGBaqi5bMvvHpMp5C9/8yCGB46G5m
mVEEviKQ+DQNwLYntufrtwISqvHM9n8IW+5lHb1lJssYR6HMNPyk8NIF/IVPNWkz
q5Mh6cV0j1XxKguEua6oD1nPDTmlRg7xFq/qNeDrE61RFWmNuR3Fxwen8yzG2vUJ
573yUqFuqrpe5y/fzKucIg+uA1lSOceUd/AKAzLXtCwc73grwlGxK3g=
-----END CERTIFICATE-----
