Certificate:
    Data:
        Version: 3 (0x2)
        Serial Number: 100 (0x64)
    Signature Algorithm: sha256WithRSAEncryption
        Issuer: C = US, ST = Washington, L = Seattle, O = wolfSSL Inc., OU = Engineering, CN = chainJ-ICA4-pathlen2, emailAddress = info@wolfssl.com
        Validity
            Not Before: Jan 29 07:49:19 2021 GMT
            Not After : Oct 26 07:49:19 2023 GMT
        Subject: C = US, ST = Washington, L = Seattle, O = wolfSSL Inc., OU = Engineering, CN = chainJ-ICA3-no_pathlen, emailAddress = info@wolfssl.com
        Subject Public Key Info:
            Public Key Algorithm: rsaEncryption
                Public-Key: (2048 bit)
                Modulus:
                    00:a3:11:78:51:af:bb:58:f8:7f:b9:d3:0d:c5:f2:
                    32:7b:cc:2f:22:c8:a4:36:6d:3b:de:83:46:bd:ca:
                    70:95:a2:ec:fe:ed:67:fe:ca:b6:31:a6:b1:dd:d0:
                    e9:07:2d:71:62:fc:d5:04:d6:fb:d7:4b:48:16:7c:
                    d3:bc:c4:9d:d2:c2:4c:4e:84:c5:12:55:cb:0e:a0:
                    e0:5f:3c:93:6a:31:a5:cb:72:07:a5:76:f8:06:b4:
                    19:cd:ee:4a:c7:fb:7e:c0:e8:01:81:8d:4a:1d:01:
                    4c:7e:5f:95:3d:e7:7a:92:e0:24:ce:05:e0:03:5d:
                    2c:e2:fb:86:58:65:b7:21:ed:aa:36:e2:79:77:23:
                    af:24:dd:72:b3:c7:aa:89:86:88:d4:96:f6:bc:ed:
                    9a:cc:e4:b4:3f:1e:5b:5d:f9:24:62:f8:01:43:f7:
                    ca:80:23:1b:80:7c:9f:6b:0e:cf:8b:51:cf:68:6d:
                    63:12:cf:f7:53:88:b4:06:8e:13:52:4c:47:48:ec:
                    86:be:17:f9:d6:54:33:b7:95:bf:c8:a4:4b:8d:61:
                    67:92:dd:0b:67:84:01:40:f6:ac:96:f2:6c:05:8f:
                    39:55:e2:fe:18:ba:90:ee:ca:10:e5:48:90:8a:b1:
                    4c:6f:e8:46:9e:8d:5c:fc:ac:a4:78:b4:97:af:87:
                    85:2b
                Exponent: 65537 (0x10001)
        X509v3 extensions:
            X509v3 Subject Key Identifier: 
                E8:DA:E8:00:62:33:CD:7E:AB:54:D8:AC:B3:EE:C7:47:98:E4:64:57
            X509v3 Authority Key Identifier: 
                keyid:BD:4C:AD:2D:B2:C7:8B:1B:F9:BC:8E:3C:74:F2:49:88:34:1D:2D:AD
                DirName:/C=US/ST=Montana/L=Bozeman/O=Sawtooth/OU=Consulting/CN=www.wolfssl.com/emailAddress=info@wolfssl.com
                serial:64

            X509v3 Basic Constraints: 
                CA:TRUE
            X509v3 Key Usage: 
                Certificate Sign, CRL Sign
    Signature Algorithm: sha256WithRSAEncryption
         63:11:18:e9:02:fd:32:6d:84:fb:9d:f5:d5:49:5f:4b:f7:fe:
         aa:71:5b:ea:ae:96:25:c9:7d:3e:a9:d0:af:de:2c:00:51:1a:
         8f:00:9c:e3:0d:f0:86:bc:f4:b2:0e:ce:37:17:0d:6a:fa:fa:
         96:ee:b6:24:a4:05:d6:02:d2:51:92:11:60:3f:6e:83:19:5e:
         25:a1:eb:3d:cf:c6:73:86:b9:a7:3f:4c:dc:c4:5b:89:c5:0c:
         e8:b0:79:6a:45:33:a2:3a:af:54:55:67:7a:5c:de:db:91:4a:
         26:89:4a:ff:9d:d1:bb:ab:e5:ab:f7:66:73:32:34:00:9d:86:
         0b:14:1d:ff:9c:63:4c:77:15:bb:17:b8:0b:e0:d0:1f:b5:27:
         68:36:af:8f:86:87:1b:1e:15:5e:25:3f:d9:00:33:21:49:a2:
         0a:8e:e5:4d:1a:72:74:95:79:27:6c:cd:22:67:f8:c4:3d:6c:
         54:43:29:85:03:f8:52:0e:88:92:d7:b3:66:1c:47:fa:8e:07:
         8d:63:f0:b0:8c:76:10:51:0e:0e:23:6f:42:08:e6:f2:9e:92:
         07:d5:ad:05:af:eb:a2:85:48:14:93:45:f1:7d:fb:5e:47:0a:
         a1:b9:cc:04:65:94:21:4f:a4:de:b4:f5:c4:83:c5:77:cd:8b:
         cd:8d:3d:81
-----BEGIN CERTIFICATE-----
MIIExDCCA6ygAwIBAgIBZDANBgkqhkiG9w0BAQsFADCBoTELMAkGA1UEBhMCVVMx
EzARBgNVBAgMCldhc2hpbmd0b24xEDAOBgNVBAcMB1NlYXR0bGUxFTATBgNVBAoM
DHdvbGZTU0wgSW5jLjEUMBIGA1UECwwLRW5naW5lZXJpbmcxHTAbBgNVBAMMFGNo
YWluSi1JQ0E0LXBhdGhsZW4yMR8wHQYJKoZIhvcNAQkBFhBpbmZvQHdvbGZzc2wu
Y29tMB4XDTIxMDEyOTA3NDkxOVoXDTIzMTAyNjA3NDkxOVowgaMxCzAJBgNVBAYT
AlVTMRMwEQYDVQQIDApXYXNoaW5ndG9uMRAwDgYDVQQHDAdTZWF0dGxlMRUwEwYD
VQQKDAx3b2xmU1NMIEluYy4xFDASBgNVBAsMC0VuZ2luZWVyaW5nMR8wHQYDVQQD
DBZjaGFpbkotSUNBMy1ub19wYXRobGVuMR8wHQYJKoZIhvcNAQkBFhBpbmZvQHdv
bGZzc2wuY29tMIIBIjANBgkqhkiG9w0BAQEFAAOCAQ8AMIIBCgKCAQEAoxF4Ua+7
WPh/udMNxfIye8wvIsikNm073oNGvcpwlaLs/u1n/sq2Maax3dDpBy1xYvzVBNb7
10tIFnzTvMSd0sJMToTFElXLDqDgXzyTajGly3IHpXb4BrQZze5Kx/t+wOgBgY1K
HQFMfl+VPed6kuAkzgXgA10s4vuGWGW3Ie2qNuJ5dyOvJN1ys8eqiYaI1Jb2vO2a
zOS0Px5bXfkkYvgBQ/fKgCMbgHyfaw7Pi1HPaG1jEs/3U4i0Bo4TUkxHSOyGvhf5
1lQzt5W/yKRLjWFnkt0LZ4QBQPaslvJsBY85VeL+GLqQ7soQ5UiQirFMb+hGno1c
/KykeLSXr4eFKwIDAQABo4IBATCB/jAdBgNVHQ4EFgQU6NroAGIzzX6rVNiss+7H
R5jkZFcwgcEGA1UdIwSBuTCBtoAUvUytLbLHixv5vI48dPJJiDQdLa2hgZqkgZcw
gZQxCzAJBgNVBAYTAlVTMRAwDgYDVQQIDAdNb250YW5hMRAwDgYDVQQHDAdCb3pl
bWFuMREwDwYDVQQKDAhTYXd0b290aDETMBEGA1UECwwKQ29uc3VsdGluZzEYMBYG
A1UEAwwPd3d3LndvbGZzc2wuY29tMR8wHQYJKoZIhvcNAQkBFhBpbmZvQHdvbGZz
c2wuY29tggFkMAwGA1UdEwQFMAMBAf8wCwYDVR0PBAQDAgEGMA0GCSqGSIb3DQEB
CwUAA4IBAQBjERjpAv0ybYT7nfXVSV9L9/6qcVvqrpYlyX0+qdCv3iwAURqPAJzj
DfCGvPSyDs43Fw1q+vqW7rYkpAXWAtJRkhFgP26DGV4loes9z8ZzhrmnP0zcxFuJ
xQzosHlqRTOiOq9UVWd6XN7bkUomiUr/ndG7q+Wr92ZzMjQAnYYLFB3/nGNMdxW7
F7gL4NAftSdoNq+PhocbHhVeJT/ZADMhSaIKjuVNGnJ0lXknbM0iZ/jEPWxUQymF
A/hSDoiS17NmHEf6jgeNY/CwjHYQUQ4OI29CCObynpIH1a0Fr+uihUgUk0Xxffte
RwqhucwEZZQhT6TetPXEg8V3zYvNjT2B
-----END CERTIFICATE-----
