Certificate:
    Data:
        Version: 3 (0x2)
        Serial Number: 100 (0x64)
    Signature Algorithm: sha256WithRSAEncryption
        Issuer: C = US, ST = Washington, L = Seattle, O = wolfSSL Inc., OU = Engineering, CN = chainG-ICA7-pathlen100, emailAddress = info@wolfssl.com
        Validity
            Not Before: Jan 29 07:49:15 2021 GMT
            Not After : Oct 26 07:49:15 2023 GMT
        Subject: C = US, ST = Washington, L = Seattle, O = wolfSSL Inc., OU = Engineering, CN = chainG-ICA6-pathlen10, emailAddress = info@wolfssl.com
        Subject Public Key Info:
            Public Key Algorithm: rsaEncryption
                Public-Key: (2048 bit)
                Modulus:
                    00:ae:79:b1:37:03:67:77:ad:79:19:a7:e2:58:22:
                    89:c0:82:4a:b4:d1:b5:53:3d:01:05:ad:fe:7e:6b:
                    bf:46:53:22:83:9b:d5:63:30:a8:11:62:02:a8:37:
                    96:73:fd:e9:7f:f6:db:5b:2b:77:fb:92:63:67:48:
                    0d:32:22:bc:d4:11:ac:ca:ff:cf:83:f1:19:a3:97:
                    1a:5e:41:41:05:ea:af:f3:2b:88:ec:51:5d:fa:a6:
                    4c:12:64:dd:dc:d3:cf:c0:e7:0c:24:89:2c:5c:2f:
                    70:28:6d:a8:a0:52:57:64:13:64:cf:a3:1a:9e:a2:
                    75:2a:17:5f:38:6e:31:fc:1c:24:8b:89:fd:df:6a:
                    5d:15:9e:b7:11:bb:6c:d9:e4:5e:fd:6e:c2:52:ed:
                    ec:98:6d:3e:5c:50:97:b5:2c:f0:b2:a2:5c:0e:ca:
                    6d:68:13:d5:e0:94:1e:34:53:3a:fc:35:24:3a:94:
                    3f:e5:d3:73:55:c4:dd:8f:e4:6c:58:66:82:8f:64:
                    4b:ef:3d:17:f1:13:10:0d:2f:ff:46:14:87:72:b7:
                    73:6e:74:11:0f:27:46:f7:fb:ca:c9:49:bd:2c:ca:
                    2b:6a:fe:0e:4f:f6:cb:4e:b1:cd:16:55:c9:97:c3:
                    b3:d5:ec:92:b5:d0:c2:07:8b:af:9f:8d:d9:72:4e:
                    1b:81
                Exponent: 65537 (0x10001)
        X509v3 extensions:
            X509v3 Subject Key Identifier: 
                07:4D:A2:8B:27:19:8E:A4:9B:A5:8A:9E:9A:69:FA:A7:58:8F:99:61
            X509v3 Authority Key Identifier: 
                keyid:3A:C5:47:50:85:57:0A:2A:19:CA:19:B7:76:54:6F:30:BB:ED:AE:9D
                DirName:/C=US/ST=Montana/L=Bozeman/O=Sawtooth/OU=Consulting/CN=www.wolfssl.com/emailAddress=info@wolfssl.com
                serial:64

            X509v3 Basic Constraints: 
                CA:TRUE, pathlen:10
            X509v3 Key Usage: 
                Certificate Sign, CRL Sign
    Signature Algorithm: sha256WithRSAEncryption
         45:bd:bd:61:0a:08:3d:bc:c8:fc:82:42:a4:91:23:07:e8:94:
         38:63:6a:59:f9:60:1e:3b:f1:03:87:39:cf:1c:6f:8d:d5:14:
         6f:75:a6:b2:fd:7a:e4:56:10:6e:e3:08:1a:35:5f:03:10:bd:
         1a:90:b5:c8:c4:12:da:45:39:03:fd:a3:e3:0e:d7:95:61:10:
         d1:d0:77:df:fa:02:f3:ba:9d:de:ff:f2:ae:03:fe:1c:ea:bb:
         0e:c2:a4:6c:2b:6f:c4:a1:50:26:bc:9b:eb:24:d8:f6:39:df:
         20:04:0e:53:d4:56:00:fb:9c:55:97:7c:bb:32:0d:3a:aa:a9:
         b7:9c:e9:d4:2f:57:c5:a3:02:a7:20:a5:7e:e5:e9:5d:5f:3d:
         9c:a7:f0:2a:70:f7:aa:34:e1:32:d2:67:68:24:f0:7e:eb:b7:
         14:97:fd:e6:24:da:1e:5c:7c:e1:72:d6:03:eb:aa:4f:ea:36:
         40:a1:0d:0a:62:10:10:3b:82:55:fd:e8:56:df:18:98:bf:ab:
         1d:33:00:ef:ed:16:1a:d5:b7:cf:54:38:34:2e:7f:1c:64:8c:
         84:5b:6e:f6:a0:7b:5f:ee:26:73:a2:36:c1:38:7b:fb:c7:56:
         0e:c8:58:3c:c0:50:3a:ba:00:a3:62:95:d9:f5:c7:e3:e0:91:
         f2:d5:87:eb
-----BEGIN CERTIFICATE-----
MIIEyTCCA7GgAwIBAgIBZDANBgkqhkiG9w0BAQsFADCBozELMAkGA1UEBhMCVVMx
EzARBgNVBAgMCldhc2hpbmd0b24xEDAOBgNVBAcMB1NlYXR0bGUxFTATBgNVBAoM
DHdvbGZTU0wgSW5jLjEUMBIGA1UECwwLRW5naW5lZXJpbmcxHzAdBgNVBAMMFmNo
YWluRy1JQ0E3LXBhdGhsZW4xMDAxHzAdBgkqhkiG9w0BCQEWEGluZm9Ad29sZnNz
bC5jb20wHhcNMjEwMTI5MDc0OTE1WhcNMjMxMDI2MDc0OTE1WjCBojELMAkGA1UE
BhMCVVMxEzARBgNVBAgMCldhc2hpbmd0b24xEDAOBgNVBAcMB1NlYXR0bGUxFTAT
BgNVBAoMDHdvbGZTU0wgSW5jLjEUMBIGA1UECwwLRW5naW5lZXJpbmcxHjAcBgNV
BAMMFWNoYWluRy1JQ0E2LXBhdGhsZW4xMDEfMB0GCSqGSIb3DQEJARYQaW5mb0B3
b2xmc3NsLmNvbTCCASIwDQYJKoZIhvcNAQEBBQADggEPADCCAQoCggEBAK55sTcD
Z3eteRmn4lgiicCCSrTRtVM9AQWt/n5rv0ZTIoOb1WMwqBFiAqg3lnP96X/221sr
d/uSY2dIDTIivNQRrMr/z4PxGaOXGl5BQQXqr/MriOxRXfqmTBJk3dzTz8DnDCSJ
LFwvcChtqKBSV2QTZM+jGp6idSoXXzhuMfwcJIuJ/d9qXRWetxG7bNnkXv1uwlLt
7JhtPlxQl7Us8LKiXA7KbWgT1eCUHjRTOvw1JDqUP+XTc1XE3Y/kbFhmgo9kS+89
F/ETEA0v/0YUh3K3c250EQ8nRvf7yslJvSzKK2r+Dk/2y06xzRZVyZfDs9XskrXQ
wgeLr5+N2XJOG4ECAwEAAaOCAQUwggEBMB0GA1UdDgQWBBQHTaKLJxmOpJulip6a
afqnWI+ZYTCBwQYDVR0jBIG5MIG2gBQ6xUdQhVcKKhnKGbd2VG8wu+2unaGBmqSB
lzCBlDELMAkGA1UEBhMCVVMxEDAOBgNVBAgMB01vbnRhbmExEDAOBgNVBAcMB0Jv
emVtYW4xETAPBgNVBAoMCFNhd3Rvb3RoMRMwEQYDVQQLDApDb25zdWx0aW5nMRgw
FgYDVQQDDA93d3cud29sZnNzbC5jb20xHzAdBgkqhkiG9w0BCQEWEGluZm9Ad29s
ZnNzbC5jb22CAWQwDwYDVR0TBAgwBgEB/wIBCjALBgNVHQ8EBAMCAQYwDQYJKoZI
hvcNAQELBQADggEBAEW9vWEKCD28yPyCQqSRIwfolDhjaln5YB478QOHOc8cb43V
FG91prL9euRWEG7jCBo1XwMQvRqQtcjEEtpFOQP9o+MO15VhENHQd9/6AvO6nd7/
8q4D/hzquw7CpGwrb8ShUCa8m+sk2PY53yAEDlPUVgD7nFWXfLsyDTqqqbec6dQv
V8WjAqcgpX7l6V1fPZyn8Cpw96o04TLSZ2gk8H7rtxSX/eYk2h5cfOFy1gPrqk/q
NkChDQpiEBA7glX96FbfGJi/qx0zAO/tFhrVt89UODQufxxkjIRbbvage1/uJnOi
NsE4e/vHVg7IWDzAUDq6AKNildn1x+PgkfLVh+s=
-----END CERTIFICATE-----
