Certificate:
    Data:
        Version: 3 (0x2)
        Serial Number: 101 (0x65)
    Signature Algorithm: sha256WithRSAEncryption
        Issuer: C = US, ST = Washington, L = Seattle, O = wolfSSL Inc., OU = Engineering, CN = chainA-ICA1-pathlen0, emailAddress = info@wolfssl.com
        Validity
            Not Before: Jan 29 07:49:11 2021 GMT
            Not After : Oct 26 07:49:11 2023 GMT
        Subject: C = US, ST = Washington, L = Seattle, O = wolfSSL Inc., OU = Engineering, CN = chainA-entity, emailAddress = info@wolfssl.com
        Subject Public Key Info:
            Public Key Algorithm: rsaEncryption
                Public-Key: (2048 bit)
                Modulus:
                    00:cc:5d:8f:07:8c:23:f5:a0:b2:59:a7:75:06:71:
                    cb:c8:36:ff:bd:64:f3:f3:a5:aa:41:8c:5e:41:2e:
                    04:36:a9:45:3b:10:97:72:4c:9b:c1:28:72:8b:9c:
                    af:60:7d:55:e3:20:2a:a5:b1:1c:f8:0e:6d:ca:7b:
                    8b:04:26:ee:37:14:3a:3d:91:8c:33:22:7f:b1:d2:
                    98:59:a1:92:90:67:f7:0c:db:ac:7b:71:cb:55:aa:
                    11:5d:16:76:37:c9:5e:b9:19:d2:3f:1a:68:32:93:
                    ca:64:26:c8:90:bd:d2:fc:0a:53:dc:41:46:ec:13:
                    ba:1c:32:df:58:9e:56:2c:86:1c:db:29:49:3f:04:
                    45:7f:83:01:f2:b8:48:a9:e9:b7:73:cc:e8:9c:97:
                    cf:74:72:4e:60:1f:b7:47:4d:38:36:1a:69:81:fa:
                    ce:4a:ac:6d:6c:fc:fc:0b:82:c9:e5:0b:5c:25:2a:
                    48:57:f4:29:39:26:bd:0b:f2:bf:21:8c:d4:84:33:
                    78:5a:ba:16:0a:cf:7f:47:67:03:40:f1:c8:2d:59:
                    78:16:ed:5a:e8:29:ac:9f:cc:c9:48:a0:85:29:9c:
                    1a:8c:07:66:85:b1:58:d3:bd:19:42:74:3a:e4:0a:
                    d4:e2:67:5e:6e:c2:fc:db:24:b3:cc:44:b3:47:2b:
                    c4:fd
                Exponent: 65537 (0x10001)
        X509v3 extensions:
            X509v3 Subject Key Identifier: 
                B6:2A:6D:EA:FF:78:9D:0B:DF:48:D6:58:DF:87:DA:82:02:49:0E:26
            X509v3 Authority Key Identifier: 
                keyid:FC:BD:AC:7E:5A:68:BF:A1:83:46:94:CF:71:08:19:77:7E:00:15:1F
                DirName:/C=US/ST=Montana/L=Bozeman/O=Sawtooth/OU=Consulting/CN=www.wolfssl.com/emailAddress=info@wolfssl.com
                serial:64

            X509v3 Basic Constraints: 
                CA:FALSE
    Signature Algorithm: sha256WithRSAEncryption
         3d:28:27:4b:46:b1:ed:70:e9:b9:d6:21:87:1f:dc:3c:c9:3c:
         37:74:c7:ac:b2:04:42:13:5e:da:a4:f9:e6:03:8f:50:17:8a:
         6c:5e:c9:bb:db:58:1a:b2:27:76:a6:b5:25:71:e1:a6:7f:4e:
         2d:39:a7:ff:bf:b4:20:4f:d5:77:b5:25:a3:69:1b:9d:77:70:
         c8:a5:16:32:71:51:c6:94:79:57:03:f0:af:58:09:bd:2d:fb:
         3c:ff:47:ab:49:24:f2:1c:80:2e:05:54:a6:85:c7:4d:d6:14:
         cd:57:9e:a6:22:6d:0e:ae:9e:69:ee:67:e5:d4:19:0f:3d:c7:
         b9:f7:20:77:bd:4a:3e:b5:b3:0d:65:6b:cd:88:e7:fb:6b:fc:
         ae:18:69:10:49:f8:45:ac:f3:92:7c:2f:dc:b8:1b:88:54:42:
         1f:0b:a6:52:e3:4e:bf:8d:77:6c:53:a4:8c:7a:90:ac:04:8f:
         56:db:78:c5:9d:63:16:66:ad:05:16:99:10:15:5d:5f:6f:ea:
         f7:7c:51:7a:a7:7f:0f:c8:3b:3b:5e:d7:5c:4d:c3:83:ae:0d:
         21:c5:61:5d:9e:3a:55:81:6c:84:a5:07:a5:54:7e:27:ee:9a:
         56:7a:19:73:53:5d:04:ee:1d:fe:f4:a5:11:80:3b:36:8a:c5:
         f9:30:c2:a1
-----BEGIN CERTIFICATE-----
MIIEqjCCA5KgAwIBAgIBZTANBgkqhkiG9w0BAQsFADCBoTELMAkGA1UEBhMCVVMx
EzARBgNVBAgMCldhc2hpbmd0b24xEDAOBgNVBAcMB1NlYXR0bGUxFTATBgNVBAoM
DHdvbGZTU0wgSW5jLjEUMBIGA1UECwwLRW5naW5lZXJpbmcxHTAbBgNVBAMMFGNo
YWluQS1JQ0ExLXBhdGhsZW4wMR8wHQYJKoZIhvcNAQkBFhBpbmZvQHdvbGZzc2wu
Y29tMB4XDTIxMDEyOTA3NDkxMVoXDTIzMTAyNjA3NDkxMVowgZoxCzAJBgNVBAYT
AlVTMRMwEQYDVQQIDApXYXNoaW5ndG9uMRAwDgYDVQQHDAdTZWF0dGxlMRUwEwYD
VQQKDAx3b2xmU1NMIEluYy4xFDASBgNVBAsMC0VuZ2luZWVyaW5nMRYwFAYDVQQD
DA1jaGFpbkEtZW50aXR5MR8wHQYJKoZIhvcNAQkBFhBpbmZvQHdvbGZzc2wuY29t
MIIBIjANBgkqhkiG9w0BAQEFAAOCAQ8AMIIBCgKCAQEAzF2PB4wj9aCyWad1BnHL
yDb/vWTz86WqQYxeQS4ENqlFOxCXckybwShyi5yvYH1V4yAqpbEc+A5tynuLBCbu
NxQ6PZGMMyJ/sdKYWaGSkGf3DNuse3HLVaoRXRZ2N8leuRnSPxpoMpPKZCbIkL3S
/ApT3EFG7BO6HDLfWJ5WLIYc2ylJPwRFf4MB8rhIqem3c8zonJfPdHJOYB+3R004
NhppgfrOSqxtbPz8C4LJ5QtcJSpIV/QpOSa9C/K/IYzUhDN4WroWCs9/R2cDQPHI
LVl4Fu1a6Cmsn8zJSKCFKZwajAdmhbFY070ZQnQ65ArU4mdebsL82ySzzESzRyvE
/QIDAQABo4HxMIHuMB0GA1UdDgQWBBS2Km3q/3idC99I1ljfh9qCAkkOJjCBwQYD
VR0jBIG5MIG2gBT8vax+Wmi/oYNGlM9xCBl3fgAVH6GBmqSBlzCBlDELMAkGA1UE
BhMCVVMxEDAOBgNVBAgMB01vbnRhbmExEDAOBgNVBAcMB0JvemVtYW4xETAPBgNV
BAoMCFNhd3Rvb3RoMRMwEQYDVQQLDApDb25zdWx0aW5nMRgwFgYDVQQDDA93d3cu
d29sZnNzbC5jb20xHzAdBgkqhkiG9w0BCQEWEGluZm9Ad29sZnNzbC5jb22CAWQw
CQYDVR0TBAIwADANBgkqhkiG9w0BAQsFAAOCAQEAPSgnS0ax7XDpudYhhx/cPMk8
N3THrLIEQhNe2qT55gOPUBeKbF7Ju9tYGrIndqa1JXHhpn9OLTmn/7+0IE/Vd7Ul
o2kbnXdwyKUWMnFRxpR5VwPwr1gJvS37PP9Hq0kk8hyALgVUpoXHTdYUzVeepiJt
Dq6eae5n5dQZDz3Hufcgd71KPrWzDWVrzYjn+2v8rhhpEEn4Razzknwv3LgbiFRC
HwumUuNOv413bFOkjHqQrASPVtt4xZ1jFmatBRaZEBVdX2/q93xReqd/D8g7O17X
XE3Dg64NIcVhXZ46VYFshKUHpVR+J+6aVnoZc1NdBO4d/vSlEYA7NorF+TDCoQ==
-----END CERTIFICATE-----
Certificate:
    Data:
        Version: 3 (0x2)
        Serial Number: 100 (0x64)
    Signature Algorithm: sha256WithRSAEncryption
        Issuer: C = US, ST = Montana, L = Bozeman, O = Sawtooth, OU = Consulting, CN = www.wolfssl.com, emailAddress = info@wolfssl.com
        Validity
            Not Before: Jan 29 07:49:11 2021 GMT
            Not After : Oct 26 07:49:11 2023 GMT
        Subject: C = US, ST = Washington, L = Seattle, O = wolfSSL Inc., OU = Engineering, CN = chainA-ICA1-pathlen0, emailAddress = info@wolfssl.com
        Subject Public Key Info:
            Public Key Algorithm: rsaEncryption
                Public-Key: (2048 bit)
                Modulus:
                    00:f8:97:1f:b2:6f:ee:f5:04:b7:25:f8:58:e6:14:
                    1d:30:b9:84:e5:af:83:3b:f4:63:18:f7:a8:cc:84:
                    d4:5e:fb:fc:26:e3:d9:77:79:7c:0c:ea:e5:76:c8:
                    20:b9:52:98:53:0c:96:8c:87:f2:a6:24:21:4c:64:
                    b9:a5:4a:c2:0f:72:2f:af:73:3b:f9:b4:30:3c:5c:
                    b6:9e:c5:03:17:a9:c2:6f:13:7e:c2:97:75:64:e8:
                    3e:80:44:1a:e3:70:ba:03:e3:83:a1:7c:6b:fe:f5:
                    04:b8:67:82:94:9a:a8:a0:5b:4b:af:f8:16:96:f4:
                    e4:ea:a4:bf:5d:a2:11:0d:3f:d4:d5:eb:8b:34:fc:
                    87:c6:9f:d0:12:2f:2e:28:86:21:5e:eb:f9:e4:58:
                    20:d9:1f:4c:01:89:d6:6e:9c:3a:d2:fc:d4:9a:fd:
                    85:61:8f:ad:d4:db:fc:c7:84:0f:ee:58:bb:5e:9a:
                    f6:88:0e:8e:36:09:a0:99:d5:81:fe:5d:88:12:11:
                    6f:b6:aa:90:ab:47:67:a2:ca:13:72:04:64:d6:79:
                    e1:a8:1f:d7:03:40:e0:33:f0:db:15:17:2e:48:79:
                    1a:71:86:b4:c9:6e:fa:65:da:22:de:f5:92:6d:4b:
                    61:2c:42:6c:85:da:a0:94:33:a9:44:f3:f2:3c:f9:
                    59:7b
                Exponent: 65537 (0x10001)
        X509v3 extensions:
            X509v3 Subject Key Identifier: 
                FC:BD:AC:7E:5A:68:BF:A1:83:46:94:CF:71:08:19:77:7E:00:15:1F
            X509v3 Authority Key Identifier: 
                keyid:27:8E:67:11:74:C3:26:1D:3F:ED:33:63:B3:A4:D8:1D:30:E5:E8:D5
                DirName:/C=US/ST=Montana/L=Bozeman/O=Sawtooth/OU=Consulting/CN=www.wolfssl.com/emailAddress=info@wolfssl.com
                serial:5E:BA:A4:F4:B1:F7:48:25:E3:5F:9B:DA:A1:13:ED:D5:2B:03:67:15

            X509v3 Basic Constraints: 
                CA:TRUE, pathlen:0
            X509v3 Key Usage: 
                Certificate Sign, CRL Sign
    Signature Algorithm: sha256WithRSAEncryption
         18:5a:33:2b:9c:92:98:fc:a2:79:68:46:d8:48:15:f6:1b:16:
         ff:83:3a:47:c8:58:1f:d3:23:a5:3e:82:94:64:86:9c:f5:a2:
         98:cc:9d:c3:af:10:6b:f2:74:01:90:dd:86:6e:6c:7b:da:d8:
         d6:e2:e8:a0:cf:70:4a:d5:26:b4:2e:b3:70:dc:46:82:50:dc:
         ac:fb:ec:ee:d8:de:bf:a3:69:0d:cd:6a:1f:79:76:5c:c5:37:
         8b:f7:b7:87:d4:53:a2:3a:d6:52:15:99:eb:ed:50:27:31:10:
         a3:32:bd:9c:dd:25:7c:08:e4:61:c8:d1:64:32:1a:5f:28:6b:
         7d:b5:4a:e4:39:42:d6:88:1d:59:12:73:11:22:14:d4:37:af:
         8d:2e:d7:6f:fe:0a:20:2f:e1:c5:a3:4f:18:1e:2a:31:7c:7d:
         af:d0:ee:f3:d9:5e:5d:70:96:77:0d:92:2a:c0:81:bf:c8:39:
         64:bb:5e:58:55:6c:da:4f:34:77:86:3d:96:cd:1b:0e:63:0d:
         de:7f:79:63:34:ac:45:23:0b:a7:73:1e:77:82:35:9d:bf:a3:
         a7:bb:20:ec:21:40:64:ac:b1:24:40:4d:1c:2f:87:be:0e:70:
         6b:12:db:fc:42:41:04:95:bf:76:e9:47:66:e9:c7:f2:50:1c:
         f9:26:4b:8b
-----BEGIN CERTIFICATE-----
MIIEzDCCA7SgAwIBAgIBZDANBgkqhkiG9w0BAQsFADCBlDELMAkGA1UEBhMCVVMx
EDAOBgNVBAgMB01vbnRhbmExEDAOBgNVBAcMB0JvemVtYW4xETAPBgNVBAoMCFNh
d3Rvb3RoMRMwEQYDVQQLDApDb25zdWx0aW5nMRgwFgYDVQQDDA93d3cud29sZnNz
bC5jb20xHzAdBgkqhkiG9w0BCQEWEGluZm9Ad29sZnNzbC5jb20wHhcNMjEwMTI5
MDc0OTExWhcNMjMxMDI2MDc0OTExWjCBoTELMAkGA1UEBhMCVVMxEzARBgNVBAgM
Cldhc2hpbmd0b24xEDAOBgNVBAcMB1NlYXR0bGUxFTATBgNVBAoMDHdvbGZTU0wg
SW5jLjEUMBIGA1UECwwLRW5naW5lZXJpbmcxHTAbBgNVBAMMFGNoYWluQS1JQ0Ex
LXBhdGhsZW4wMR8wHQYJKoZIhvcNAQkBFhBpbmZvQHdvbGZzc2wuY29tMIIBIjAN
BgkqhkiG9w0BAQEFAAOCAQ8AMIIBCgKCAQEA+Jcfsm/u9QS3JfhY5hQdMLmE5a+D
O/RjGPeozITUXvv8JuPZd3l8DOrldsgguVKYUwyWjIfypiQhTGS5pUrCD3Ivr3M7
+bQwPFy2nsUDF6nCbxN+wpd1ZOg+gEQa43C6A+ODoXxr/vUEuGeClJqooFtLr/gW
lvTk6qS/XaIRDT/U1euLNPyHxp/QEi8uKIYhXuv55Fgg2R9MAYnWbpw60vzUmv2F
YY+t1Nv8x4QP7li7Xpr2iA6ONgmgmdWB/l2IEhFvtqqQq0dnosoTcgRk1nnhqB/X
A0DgM/DbFRcuSHkacYa0yW76Zdoi3vWSbUthLEJshdqglDOpRPPyPPlZewIDAQAB
o4IBGDCCARQwHQYDVR0OBBYEFPy9rH5aaL+hg0aUz3EIGXd+ABUfMIHUBgNVHSME
gcwwgcmAFCeOZxF0wyYdP+0zY7Ok2B0w5ejVoYGapIGXMIGUMQswCQYDVQQGEwJV
UzEQMA4GA1UECAwHTW9udGFuYTEQMA4GA1UEBwwHQm96ZW1hbjERMA8GA1UECgwI
U2F3dG9vdGgxEzARBgNVBAsMCkNvbnN1bHRpbmcxGDAWBgNVBAMMD3d3dy53b2xm
c3NsLmNvbTEfMB0GCSqGSIb3DQEJARYQaW5mb0B3b2xmc3NsLmNvbYIUXrqk9LH3
SCXjX5vaoRPt1SsDZxUwDwYDVR0TBAgwBgEB/wIBADALBgNVHQ8EBAMCAQYwDQYJ
KoZIhvcNAQELBQADggEBABhaMyuckpj8onloRthIFfYbFv+DOkfIWB/TI6U+gpRk
hpz1opjMncOvEGvydAGQ3YZubHva2Nbi6KDPcErVJrQus3DcRoJQ3Kz77O7Y3r+j
aQ3Nah95dlzFN4v3t4fUU6I61lIVmevtUCcxEKMyvZzdJXwI5GHI0WQyGl8oa321
SuQ5QtaIHVkScxEiFNQ3r40u12/+CiAv4cWjTxgeKjF8fa/Q7vPZXl1wlncNkirA
gb/IOWS7XlhVbNpPNHeGPZbNGw5jDd5/eWM0rEUjC6dzHneCNZ2/o6e7IOwhQGSs
sSRATRwvh74OcGsS2/xCQQSVv3bpR2bpx/JQHPkmS4s=
-----END CERTIFICATE-----
