Certificate:
    Data:
        Version: 3 (0x2)
        Serial Number: 101 (0x65)
    Signature Algorithm: sha256WithRSAEncryption
        Issuer: C = US, ST = Washington, L = Seattle, O = wolfSSL Inc., OU = Engineering, CN = chainC-ICA1-pathlen1, emailAddress = info@wolfssl.com
        Validity
            Not Before: Jan 29 07:49:12 2021 GMT
            Not After : Oct 26 07:49:12 2023 GMT
        Subject: C = US, ST = Washington, L = Seattle, O = wolfSSL Inc., OU = Engineering, CN = chainC-entity, emailAddress = info@wolfssl.com
        Subject Public Key Info:
            Public Key Algorithm: rsaEncryption
                Public-Key: (2048 bit)
                Modulus:
                    00:aa:0a:ef:cf:4a:48:ae:11:07:a2:02:df:62:e1:
                    df:0f:eb:5b:0b:b5:93:1f:35:ca:b6:89:87:2c:96:
                    c9:53:e7:ea:00:58:dd:f2:66:6d:03:b3:82:cc:5b:
                    f9:02:ec:16:32:67:7c:67:38:8f:4e:cb:d6:89:ab:
                    29:5d:3b:a7:e1:88:a9:03:7d:7a:41:93:04:11:4b:
                    e6:d8:ef:35:47:32:63:01:40:b9:fa:6f:e2:9e:52:
                    58:48:d1:ea:8e:26:62:3f:e3:e8:27:39:5c:ac:4f:
                    74:21:60:52:0e:b6:8e:27:63:31:69:7c:8f:9e:2e:
                    87:dc:f1:31:1c:ab:70:92:99:73:a0:81:01:9b:1e:
                    24:52:d1:96:bf:2f:94:56:1b:4a:f0:d4:46:91:1a:
                    5a:83:fe:a4:28:f2:aa:22:cb:72:22:2d:4a:47:7a:
                    1c:c3:ab:16:56:d3:47:06:0a:35:81:98:65:c2:85:
                    cd:44:66:20:2d:8a:bf:74:2f:c1:a7:39:2e:15:95:
                    00:1a:d7:65:dc:f8:93:f8:be:4d:80:f5:31:10:5e:
                    23:c9:c9:77:e1:9d:a5:18:fe:e6:5e:27:f4:a4:04:
                    0e:6f:8c:6d:c4:71:b5:bf:47:52:36:0e:19:7f:d8:
                    ad:1f:03:a6:01:44:4c:fd:0a:0e:36:4c:aa:44:25:
                    ba:5f
                Exponent: 65537 (0x10001)
        X509v3 extensions:
            X509v3 Subject Key Identifier: 
                1F:35:01:D7:3B:63:1D:A7:EE:65:78:C0:6C:14:DE:F7:D7:E3:4E:02
            X509v3 Authority Key Identifier: 
                keyid:3D:1E:01:03:58:F7:7B:56:39:F7:55:31:D7:17:0B:CA:07:CD:1A:37
                DirName:/C=US/ST=Montana/L=Bozeman/O=Sawtooth/OU=Consulting/CN=www.wolfssl.com/emailAddress=info@wolfssl.com
                serial:64

            X509v3 Basic Constraints: 
                CA:FALSE
    Signature Algorithm: sha256WithRSAEncryption
         d5:f6:b6:75:b7:a3:ba:93:fc:eb:fb:cc:3f:ee:57:72:7b:a9:
         87:3c:99:94:c5:62:85:6d:43:00:d2:88:61:88:09:90:fe:f8:
         0b:f0:fe:bd:b8:d4:c9:7c:f2:6a:a5:74:ed:af:12:2b:f4:69:
         e4:09:4c:21:bf:3a:fd:36:05:f6:47:91:94:ed:bb:ab:f5:80:
         5b:3a:24:72:a5:31:de:e7:16:98:e2:bc:23:13:5d:dd:60:cc:
         43:28:e3:3f:8b:27:5f:0b:41:fb:91:4c:f7:7b:2f:fb:72:bb:
         0c:9d:a0:45:9b:70:df:4d:35:d3:c5:75:49:e4:94:ef:c2:f4:
         7d:48:5f:a4:f8:e3:20:df:e7:79:f3:b2:c5:e3:7b:d8:ca:9d:
         10:0d:96:d6:ac:f7:0e:c2:20:8a:78:78:34:7a:91:1a:01:75:
         f6:98:d2:d3:8a:cb:de:27:ad:1a:e8:8c:24:e2:fd:c2:36:2a:
         ca:88:63:6c:c0:f9:42:fd:a6:c5:2a:15:2f:0c:11:c0:a7:5f:
         ba:1b:83:70:7f:1b:20:74:66:e9:da:86:f7:6e:32:7e:45:17:
         72:29:03:54:16:70:34:a1:10:6f:c9:e5:00:58:3b:51:9f:8f:
         9e:be:b6:16:41:84:4d:8c:5d:e6:12:bb:ac:ea:3b:0c:a3:a0:
         f3:cc:d3:b0
-----BEGIN CERTIFICATE-----
MIIEqjCCA5KgAwIBAgIBZTANBgkqhkiG9w0BAQsFADCBoTELMAkGA1UEBhMCVVMx
EzARBgNVBAgMCldhc2hpbmd0b24xEDAOBgNVBAcMB1NlYXR0bGUxFTATBgNVBAoM
DHdvbGZTU0wgSW5jLjEUMBIGA1UECwwLRW5naW5lZXJpbmcxHTAbBgNVBAMMFGNo
YWluQy1JQ0ExLXBhdGhsZW4xMR8wHQYJKoZIhvcNAQkBFhBpbmZvQHdvbGZzc2wu
Y29tMB4XDTIxMDEyOTA3NDkxMloXDTIzMTAyNjA3NDkxMlowgZoxCzAJBgNVBAYT
AlVTMRMwEQYDVQQIDApXYXNoaW5ndG9uMRAwDgYDVQQHDAdTZWF0dGxlMRUwEwYD
VQQKDAx3b2xmU1NMIEluYy4xFDASBgNVBAsMC0VuZ2luZWVyaW5nMRYwFAYDVQQD
DA1jaGFpbkMtZW50aXR5MR8wHQYJKoZIhvcNAQkBFhBpbmZvQHdvbGZzc2wuY29t
MIIBIjANBgkqhkiG9w0BAQEFAAOCAQ8AMIIBCgKCAQEAqgrvz0pIrhEHogLfYuHf
D+tbC7WTHzXKtomHLJbJU+fqAFjd8mZtA7OCzFv5AuwWMmd8ZziPTsvWiaspXTun
4YipA316QZMEEUvm2O81RzJjAUC5+m/inlJYSNHqjiZiP+PoJzlcrE90IWBSDraO
J2MxaXyPni6H3PExHKtwkplzoIEBmx4kUtGWvy+UVhtK8NRGkRpag/6kKPKqIsty
Ii1KR3ocw6sWVtNHBgo1gZhlwoXNRGYgLYq/dC/BpzkuFZUAGtdl3PiT+L5NgPUx
EF4jycl34Z2lGP7mXif0pAQOb4xtxHG1v0dSNg4Zf9itHwOmAURM/QoONkyqRCW6
XwIDAQABo4HxMIHuMB0GA1UdDgQWBBQfNQHXO2Mdp+5leMBsFN731+NOAjCBwQYD
VR0jBIG5MIG2gBQ9HgEDWPd7Vjn3VTHXFwvKB80aN6GBmqSBlzCBlDELMAkGA1UE
BhMCVVMxEDAOBgNVBAgMB01vbnRhbmExEDAOBgNVBAcMB0JvemVtYW4xETAPBgNV
BAoMCFNhd3Rvb3RoMRMwEQYDVQQLDApDb25zdWx0aW5nMRgwFgYDVQQDDA93d3cu
d29sZnNzbC5jb20xHzAdBgkqhkiG9w0BCQEWEGluZm9Ad29sZnNzbC5jb22CAWQw
CQYDVR0TBAIwADANBgkqhkiG9w0BAQsFAAOCAQEA1fa2dbejupP86/vMP+5Xcnup
hzyZlMVihW1DANKIYYgJkP74C/D+vbjUyXzyaqV07a8SK/Rp5AlMIb86/TYF9keR
lO27q/WAWzokcqUx3ucWmOK8IxNd3WDMQyjjP4snXwtB+5FM93sv+3K7DJ2gRZtw
300108V1SeSU78L0fUhfpPjjIN/nefOyxeN72MqdEA2W1qz3DsIginh4NHqRGgF1
9pjS04rL3ietGuiMJOL9wjYqyohjbMD5Qv2mxSoVLwwRwKdfuhuDcH8bIHRm6dqG
924yfkUXcikDVBZwNKEQb8nlAFg7UZ+Pnr62FkGETYxd5hK7rOo7DKOg88zTsA==
-----END CERTIFICATE-----
