Certificate:
    Data:
        Version: 3 (0x2)
        Serial Number: 101 (0x65)
    Signature Algorithm: sha256WithRSAEncryption
        Issuer: C = US, ST = Washington, L = Seattle, O = wolfSSL Inc., OU = Engineering, CN = chainE-ICA1-pathlen128, emailAddress = info@wolfssl.com
        Validity
            Not Before: Jan 29 07:49:13 2021 GMT
            Not After : Oct 26 07:49:13 2023 GMT
        Subject: C = US, ST = Washington, L = Seattle, O = wolfSSL Inc., OU = Engineering, CN = chainE-entity, emailAddress = info@wolfssl.com
        Subject Public Key Info:
            Public Key Algorithm: rsaEncryption
                Public-Key: (2048 bit)
                Modulus:
                    00:c6:b2:0e:65:38:f4:e9:e0:f5:1f:b5:db:98:f1:
                    1f:d4:ff:ea:9d:65:15:a7:71:58:72:97:4b:a4:28:
                    ae:c5:14:d7:9e:e6:4f:8a:8c:85:41:d5:56:00:cc:
                    f7:ff:11:d2:d5:91:c6:d3:a3:9d:42:4d:02:30:f7:
                    f3:26:c1:5e:d8:29:c8:35:8a:70:9a:17:69:1b:c0:
                    3e:d3:29:5d:7f:ad:88:77:e1:b0:df:1b:c6:3c:6c:
                    16:06:e0:f3:2a:c5:b6:82:0e:95:bf:bc:71:6c:fc:
                    33:bb:99:e6:a5:2a:1d:19:2c:2a:1e:41:2f:64:b5:
                    2c:4c:d0:8e:3b:a7:b9:ab:b5:1a:fa:8c:a8:1b:42:
                    1a:f7:15:8b:86:dd:27:c7:37:a6:5f:49:15:d9:61:
                    e4:3e:6c:fe:4a:b2:3f:58:c6:e6:d0:41:1f:f8:00:
                    af:be:04:07:b1:87:8f:65:cb:9c:4b:84:ce:86:25:
                    30:52:49:bc:37:4e:c7:38:22:44:9e:22:06:0b:b8:
                    9c:16:83:7a:ad:3d:b5:f7:e5:24:5c:36:fb:56:ff:
                    f7:63:4d:6f:d3:f5:65:75:5e:4e:00:9c:cd:25:43:
                    22:0b:48:28:65:7a:42:b1:96:1b:37:db:c7:fc:d7:
                    e7:cd:94:be:7f:ea:d7:f5:b8:ef:31:da:53:7a:b4:
                    6f:a3
                Exponent: 65537 (0x10001)
        X509v3 extensions:
            X509v3 Subject Key Identifier: 
                F1:D1:6C:18:30:F5:BB:FB:0F:5D:81:A3:CB:03:5A:00:F6:C6:50:5D
            X509v3 Authority Key Identifier: 
                keyid:68:30:55:10:C2:A5:3C:CC:9E:12:3D:0E:9A:75:A3:3B:F4:62:1D:17
                DirName:/C=US/ST=Montana/L=Bozeman/O=Sawtooth/OU=Consulting/CN=www.wolfssl.com/emailAddress=info@wolfssl.com
                serial:64

            X509v3 Basic Constraints: 
                CA:FALSE
    Signature Algorithm: sha256WithRSAEncryption
         1b:9f:b9:b6:de:85:b5:c7:3d:82:40:85:4d:5f:8f:e6:23:89:
         4b:f4:cf:24:8c:d3:62:43:fb:1f:82:7c:02:c2:db:8a:ec:5c:
         65:01:ca:50:50:b5:20:48:66:66:70:e2:3e:af:93:45:14:05:
         e4:a0:54:36:73:d2:38:76:6d:17:ed:88:6d:b1:cb:d8:0a:c6:
         cf:36:0d:09:57:26:4c:38:0a:a3:31:47:3a:fa:cc:7f:b1:aa:
         b0:fd:42:f2:01:4b:17:26:9a:c1:0d:0b:18:e6:fd:39:d2:61:
         af:1e:1b:af:4f:0a:ba:6e:33:87:e4:16:07:d6:2b:18:e3:c9:
         cf:e0:28:1d:7d:ab:b2:a6:57:7a:66:c6:db:c1:38:a8:91:3f:
         84:27:29:52:bb:1a:db:e2:1a:cd:7f:94:97:3b:f4:f7:65:e8:
         56:57:ff:30:d6:71:4c:56:52:8e:4f:8c:8d:77:6a:6c:7b:4a:
         c8:13:70:e5:9b:98:40:1f:3a:7a:cb:9e:26:55:6c:e4:88:f3:
         e9:b5:ab:c7:bb:6a:9e:d2:98:23:8c:4b:93:a0:6e:3e:c8:9d:
         c0:0a:57:14:22:30:d5:45:d1:b0:26:e3:c7:7d:f7:06:ab:38:
         25:af:92:4c:9a:3f:d9:f3:80:1a:55:7d:9e:e4:21:11:10:fd:
         c4:2d:eb:99
-----BEGIN CERTIFICATE-----
MIIErDCCA5SgAwIBAgIBZTANBgkqhkiG9w0BAQsFADCBozELMAkGA1UEBhMCVVMx
EzARBgNVBAgMCldhc2hpbmd0b24xEDAOBgNVBAcMB1NlYXR0bGUxFTATBgNVBAoM
DHdvbGZTU0wgSW5jLjEUMBIGA1UECwwLRW5naW5lZXJpbmcxHzAdBgNVBAMMFmNo
YWluRS1JQ0ExLXBhdGhsZW4xMjgxHzAdBgkqhkiG9w0BCQEWEGluZm9Ad29sZnNz
bC5jb20wHhcNMjEwMTI5MDc0OTEzWhcNMjMxMDI2MDc0OTEzWjCBmjELMAkGA1UE
BhMCVVMxEzARBgNVBAgMCldhc2hpbmd0b24xEDAOBgNVBAcMB1NlYXR0bGUxFTAT
BgNVBAoMDHdvbGZTU0wgSW5jLjEUMBIGA1UECwwLRW5naW5lZXJpbmcxFjAUBgNV
BAMMDWNoYWluRS1lbnRpdHkxHzAdBgkqhkiG9w0BCQEWEGluZm9Ad29sZnNzbC5j
b20wggEiMA0GCSqGSIb3DQEBAQUAA4IBDwAwggEKAoIBAQDGsg5lOPTp4PUftduY
8R/U/+qdZRWncVhyl0ukKK7FFNee5k+KjIVB1VYAzPf/EdLVkcbTo51CTQIw9/Mm
wV7YKcg1inCaF2kbwD7TKV1/rYh34bDfG8Y8bBYG4PMqxbaCDpW/vHFs/DO7meal
Kh0ZLCoeQS9ktSxM0I47p7mrtRr6jKgbQhr3FYuG3SfHN6ZfSRXZYeQ+bP5Ksj9Y
xubQQR/4AK++BAexh49ly5xLhM6GJTBSSbw3Tsc4IkSeIgYLuJwWg3qtPbX35SRc
NvtW//djTW/T9WV1Xk4AnM0lQyILSChlekKxlhs328f81+fNlL5/6tf1uO8x2lN6
tG+jAgMBAAGjgfEwge4wHQYDVR0OBBYEFPHRbBgw9bv7D12Bo8sDWgD2xlBdMIHB
BgNVHSMEgbkwgbaAFGgwVRDCpTzMnhI9Dpp1ozv0Yh0XoYGapIGXMIGUMQswCQYD
VQQGEwJVUzEQMA4GA1UECAwHTW9udGFuYTEQMA4GA1UEBwwHQm96ZW1hbjERMA8G
A1UECgwIU2F3dG9vdGgxEzARBgNVBAsMCkNvbnN1bHRpbmcxGDAWBgNVBAMMD3d3
dy53b2xmc3NsLmNvbTEfMB0GCSqGSIb3DQEJARYQaW5mb0B3b2xmc3NsLmNvbYIB
ZDAJBgNVHRMEAjAAMA0GCSqGSIb3DQEBCwUAA4IBAQAbn7m23oW1xz2CQIVNX4/m
I4lL9M8kjNNiQ/sfgnwCwtuK7FxlAcpQULUgSGZmcOI+r5NFFAXkoFQ2c9I4dm0X
7YhtscvYCsbPNg0JVyZMOAqjMUc6+sx/saqw/ULyAUsXJprBDQsY5v050mGvHhuv
Twq6bjOH5BYH1isY48nP4Cgdfauypld6ZsbbwTiokT+EJylSuxrb4hrNf5SXO/T3
ZehWV/8w1nFMVlKOT4yNd2pse0rIE3Dlm5hAHzp6y54mVWzkiPPptavHu2qe0pgj
jEuToG4+yJ3AClcUIjDVRdGwJuPHffcGqzglr5JMmj/Z84AaVX2e5CEREP3ELeuZ
-----END CERTIFICATE-----
