Certificate:
    Data:
        Version: 3 (0x2)
        Serial Number: 100 (0x64)
    Signature Algorithm: sha256WithRSAEncryption
        Issuer: C = US, ST = Washington, L = Seattle, O = wolfSSL Inc., OU = Engineering, CN = chainF-ICA2-pathlen0, emailAddress = info@wolfssl.com
        Validity
            Not Before: Jan 29 07:49:14 2021 GMT
            Not After : Oct 26 07:49:14 2023 GMT
        Subject: C = US, ST = Washington, L = Seattle, O = wolfSSL Inc., OU = Engineering, CN = chainF-ICA1-pathlen1, emailAddress = info@wolfssl.com
        Subject Public Key Info:
            Public Key Algorithm: rsaEncryption
                Public-Key: (2048 bit)
                Modulus:
                    00:b6:81:e9:69:b9:9a:4b:f0:e8:f5:5c:9b:29:05:
                    40:a1:2e:0b:df:56:e3:18:3f:4f:23:d6:c7:6d:c3:
                    62:ce:00:de:e7:58:eb:ef:d1:98:7f:26:e6:a7:f7:
                    e1:68:1a:e9:5f:e3:53:3b:28:36:73:5a:54:37:9b:
                    eb:73:77:33:44:72:ff:4d:96:c2:5f:9f:8f:cf:08:
                    90:93:7d:7e:32:19:f5:e0:e3:24:26:14:c7:5a:5a:
                    72:26:4b:52:c7:60:39:ad:df:7d:9c:61:9a:5e:75:
                    d2:7a:48:a0:21:d8:ec:04:9f:47:f0:d4:6d:4c:ad:
                    38:91:44:f3:b8:b5:c3:73:c3:42:4b:e8:f1:5c:30:
                    49:8a:ef:24:92:45:98:21:f2:6d:a9:15:7d:b3:78:
                    f8:bd:7e:9d:9b:8b:de:f2:7d:5e:6d:92:29:ab:3c:
                    b1:71:ef:31:8a:f5:76:67:54:7c:c5:7a:1a:46:33:
                    d3:9f:bb:82:88:a7:50:23:29:f9:39:cb:bc:ba:af:
                    0b:87:e3:97:89:d8:09:b8:9e:54:e1:53:ce:c5:47:
                    db:62:fe:2d:77:c0:25:bf:9a:99:45:ef:7f:15:d3:
                    c2:28:a8:70:26:78:88:53:39:74:21:1b:fc:3e:0c:
                    62:e2:b0:15:38:ec:59:89:b9:18:ca:0f:9c:1c:35:
                    e1:13
                Exponent: 65537 (0x10001)
        X509v3 extensions:
            X509v3 Subject Key Identifier: 
                67:7D:2B:99:E4:26:51:9B:E9:3C:66:E8:17:D7:AF:54:52:1A:12:47
            X509v3 Authority Key Identifier: 
                keyid:17:24:F1:B3:CA:D9:54:65:D7:F8:06:75:9C:60:C7:D8:85:A4:37:D7
                DirName:/C=US/ST=Montana/L=Bozeman/O=Sawtooth/OU=Consulting/CN=www.wolfssl.com/emailAddress=info@wolfssl.com
                serial:64

            X509v3 Basic Constraints: 
                CA:TRUE, pathlen:1
            X509v3 Key Usage: 
                Certificate Sign, CRL Sign
    Signature Algorithm: sha256WithRSAEncryption
         6d:02:82:ea:4f:58:6c:c7:ee:a3:dc:48:d1:c7:4b:f7:ea:85:
         fe:de:58:0d:6c:a2:fe:ba:fc:c3:1c:eb:21:49:a8:5b:e7:d5:
         87:85:a5:f1:28:05:db:5d:0b:9a:a7:18:a2:ba:b0:55:00:93:
         4e:3a:07:d4:b1:fc:24:e5:f8:7c:71:c9:a6:3e:d7:34:89:28:
         62:a3:f5:c9:2e:c6:7f:94:49:41:3a:94:6d:4c:91:70:49:cb:
         62:a7:06:22:25:95:40:f1:a9:61:e8:7e:a8:a7:b7:3d:1d:1f:
         73:d7:53:15:86:a9:b4:3b:54:08:d4:d7:70:f3:d0:52:b0:84:
         d2:15:e0:34:ff:01:f0:ff:66:bd:71:0f:a1:a7:31:1f:01:61:
         b6:c8:89:e1:88:d2:b5:16:3e:92:a6:21:f4:f6:22:90:bc:9b:
         3c:f9:59:8a:46:e6:44:72:87:09:ee:e7:1f:55:dc:83:41:32:
         7d:2f:9e:58:8e:54:f8:dd:dd:2e:99:59:8c:43:64:09:60:86:
         75:73:19:0e:f7:dc:09:de:d8:7e:96:33:45:a8:f1:56:c6:59:
         e4:33:aa:df:a2:f1:dc:9c:d4:ed:18:bd:3f:29:3d:0c:59:35:
         9c:6d:e4:8f:68:9d:7d:40:1f:3b:52:a4:40:86:e8:ad:4f:86:
         6e:f1:bf:4a
-----BEGIN CERTIFICATE-----
MIIExjCCA66gAwIBAgIBZDANBgkqhkiG9w0BAQsFADCBoTELMAkGA1UEBhMCVVMx
EzARBgNVBAgMCldhc2hpbmd0b24xEDAOBgNVBAcMB1NlYXR0bGUxFTATBgNVBAoM
DHdvbGZTU0wgSW5jLjEUMBIGA1UECwwLRW5naW5lZXJpbmcxHTAbBgNVBAMMFGNo
YWluRi1JQ0EyLXBhdGhsZW4wMR8wHQYJKoZIhvcNAQkBFhBpbmZvQHdvbGZzc2wu
Y29tMB4XDTIxMDEyOTA3NDkxNFoXDTIzMTAyNjA3NDkxNFowgaExCzAJBgNVBAYT
AlVTMRMwEQYDVQQIDApXYXNoaW5ndG9uMRAwDgYDVQQHDAdTZWF0dGxlMRUwEwYD
VQQKDAx3b2xmU1NMIEluYy4xFDASBgNVBAsMC0VuZ2luZWVyaW5nMR0wGwYDVQQD
DBRjaGFpbkYtSUNBMS1wYXRobGVuMTEfMB0GCSqGSIb3DQEJARYQaW5mb0B3b2xm
c3NsLmNvbTCCASIwDQYJKoZIhvcNAQEBBQADggEPADCCAQoCggEBALaB6Wm5mkvw
6PVcmykFQKEuC99W4xg/TyPWx23DYs4A3udY6+/RmH8m5qf34Wga6V/jUzsoNnNa
VDeb63N3M0Ry/02Wwl+fj88IkJN9fjIZ9eDjJCYUx1paciZLUsdgOa3ffZxhml51
0npIoCHY7ASfR/DUbUytOJFE87i1w3PDQkvo8VwwSYrvJJJFmCHybakVfbN4+L1+
nZuL3vJ9Xm2SKas8sXHvMYr1dmdUfMV6GkYz05+7goinUCMp+TnLvLqvC4fjl4nY
CbieVOFTzsVH22L+LXfAJb+amUXvfxXTwiiocCZ4iFM5dCEb/D4MYuKwFTjsWYm5
GMoPnBw14RMCAwEAAaOCAQUwggEBMB0GA1UdDgQWBBRnfSuZ5CZRm+k8ZugX169U
UhoSRzCBwQYDVR0jBIG5MIG2gBQXJPGzytlUZdf4BnWcYMfYhaQ316GBmqSBlzCB
lDELMAkGA1UEBhMCVVMxEDAOBgNVBAgMB01vbnRhbmExEDAOBgNVBAcMB0JvemVt
YW4xETAPBgNVBAoMCFNhd3Rvb3RoMRMwEQYDVQQLDApDb25zdWx0aW5nMRgwFgYD
VQQDDA93d3cud29sZnNzbC5jb20xHzAdBgkqhkiG9w0BCQEWEGluZm9Ad29sZnNz
bC5jb22CAWQwDwYDVR0TBAgwBgEB/wIBATALBgNVHQ8EBAMCAQYwDQYJKoZIhvcN
AQELBQADggEBAG0CgupPWGzH7qPcSNHHS/fqhf7eWA1sov66/MMc6yFJqFvn1YeF
pfEoBdtdC5qnGKK6sFUAk046B9Sx/CTl+HxxyaY+1zSJKGKj9ckuxn+USUE6lG1M
kXBJy2KnBiIllUDxqWHofqintz0dH3PXUxWGqbQ7VAjU13Dz0FKwhNIV4DT/AfD/
Zr1xD6GnMR8BYbbIieGI0rUWPpKmIfT2IpC8mzz5WYpG5kRyhwnu5x9V3INBMn0v
nliOVPjd3S6ZWYxDZAlghnVzGQ733Ane2H6WM0Wo8VbGWeQzqt+i8dyc1O0YvT8p
PQxZNZxt5I9onX1AHztSpECG6K1Phm7xv0o=
-----END CERTIFICATE-----
