Certificate:
    Data:
        Version: 3 (0x2)
        Serial Number: 100 (0x64)
    Signature Algorithm: sha256WithRSAEncryption
        Issuer: C = US, ST = Montana, L = Bozeman, O = Sawtooth, OU = Consulting, CN = www.wolfssl.com, emailAddress = info@wolfssl.com
        Validity
            Not Before: Jan 29 07:49:14 2021 GMT
            Not After : Oct 26 07:49:14 2023 GMT
        Subject: C = US, ST = Washington, L = Seattle, O = wolfSSL Inc., OU = Engineering, CN = chainG-ICA7-pathlen100, emailAddress = info@wolfssl.com
        Subject Public Key Info:
            Public Key Algorithm: rsaEncryption
                Public-Key: (2048 bit)
                Modulus:
                    00:d9:4a:52:bc:65:6e:84:27:08:54:f8:7d:5e:26:
                    06:25:26:2b:63:2f:11:d1:47:b4:96:aa:53:40:1f:
                    60:83:6e:e2:74:41:04:1a:3a:1a:d0:76:8a:72:3f:
                    70:f3:62:7f:19:13:33:90:eb:6f:61:db:66:59:a7:
                    97:a3:cc:0a:8e:ae:3e:a7:7c:9d:62:a0:e4:3f:2c:
                    26:14:6f:9a:bc:75:c2:06:a0:66:de:76:57:2d:f3:
                    a1:b6:8b:a6:2b:e5:3c:3a:26:a1:d9:87:49:88:fb:
                    43:b3:67:77:a3:d0:b7:2c:95:2c:05:aa:00:51:e3:
                    14:d7:2e:00:0d:ee:51:ea:01:4c:53:01:f0:c5:a3:
                    90:07:40:bb:22:d6:6d:e4:9c:ce:8a:91:64:5d:1a:
                    32:7f:8b:f0:c6:44:de:26:ef:4c:16:12:3d:d2:c6:
                    d9:6f:f8:28:53:85:ba:9e:c5:f6:7f:16:e1:b3:69:
                    91:b1:4f:e8:35:c2:19:78:d1:e7:82:2c:16:c1:95:
                    f4:81:42:25:1e:e5:71:36:2d:ad:33:b3:f0:18:e2:
                    c3:2c:7a:e9:b0:ce:40:f3:70:cb:f7:87:46:f1:23:
                    f1:d8:0c:1d:72:c2:58:2b:81:b5:a9:d3:37:58:3b:
                    08:1c:c9:b0:74:32:91:b3:9e:1a:9f:62:24:1b:a5:
                    fe:ab
                Exponent: 65537 (0x10001)
        X509v3 extensions:
            X509v3 Subject Key Identifier: 
                3A:C5:47:50:85:57:0A:2A:19:CA:19:B7:76:54:6F:30:BB:ED:AE:9D
            X509v3 Authority Key Identifier: 
                keyid:27:8E:67:11:74:C3:26:1D:3F:ED:33:63:B3:A4:D8:1D:30:E5:E8:D5
                DirName:/C=US/ST=Montana/L=Bozeman/O=Sawtooth/OU=Consulting/CN=www.wolfssl.com/emailAddress=info@wolfssl.com
                serial:5E:BA:A4:F4:B1:F7:48:25:E3:5F:9B:DA:A1:13:ED:D5:2B:03:67:15

            X509v3 Basic Constraints: 
                CA:TRUE, pathlen:100
            X509v3 Key Usage: 
                Certificate Sign, CRL Sign
    Signature Algorithm: sha256WithRSAEncryption
         8b:63:23:c9:c5:97:e5:7c:19:2e:8e:d9:46:e6:28:35:9f:c1:
         43:7b:13:a5:ff:57:e7:10:2f:c9:86:09:00:91:14:78:53:1f:
         53:d7:d4:c8:36:c0:9c:3a:fc:62:60:80:d5:61:a6:3b:a7:85:
         a8:3b:2c:9d:93:28:57:3f:7c:93:6a:3a:7e:b8:6b:d3:c8:5b:
         e4:8c:6e:f3:49:fc:9b:1b:d5:8b:66:a5:b2:11:22:6b:d3:a4:
         b5:c6:ac:cd:95:68:06:62:47:cd:a7:cc:36:c4:f7:ed:41:b4:
         60:4e:dd:0e:a2:25:81:e5:05:65:dd:2e:aa:50:42:39:05:e6:
         b6:f5:19:d1:e9:50:e3:57:d5:3a:78:cb:ee:c6:d3:46:51:76:
         22:7b:6c:75:59:b8:7b:e5:43:52:04:77:2c:24:0f:6c:d5:cc:
         de:e6:c3:29:39:f1:db:3a:87:7c:3d:3e:04:d1:36:b8:67:58:
         05:55:f0:b1:39:c6:d0:dc:ff:31:24:97:ed:56:7b:0f:44:34:
         9b:19:b7:31:83:26:cb:51:df:9e:75:72:e8:b5:02:bf:4b:a4:
         3e:fd:9c:eb:76:07:d8:f9:24:a5:ee:cd:fa:1a:62:ad:92:bc:
         7a:50:90:ad:13:2c:8f:69:1b:97:3e:32:61:53:99:9c:db:60:
         bd:a9:d7:56
-----BEGIN CERTIFICATE-----
MIIEzjCCA7agAwIBAgIBZDANBgkqhkiG9w0BAQsFADCBlDELMAkGA1UEBhMCVVMx
EDAOBgNVBAgMB01vbnRhbmExEDAOBgNVBAcMB0JvemVtYW4xETAPBgNVBAoMCFNh
d3Rvb3RoMRMwEQYDVQQLDApDb25zdWx0aW5nMRgwFgYDVQQDDA93d3cud29sZnNz
bC5jb20xHzAdBgkqhkiG9w0BCQEWEGluZm9Ad29sZnNzbC5jb20wHhcNMjEwMTI5
MDc0OTE0WhcNMjMxMDI2MDc0OTE0WjCBozELMAkGA1UEBhMCVVMxEzARBgNVBAgM
Cldhc2hpbmd0b24xEDAOBgNVBAcMB1NlYXR0bGUxFTATBgNVBAoMDHdvbGZTU0wg
SW5jLjEUMBIGA1UECwwLRW5naW5lZXJpbmcxHzAdBgNVBAMMFmNoYWluRy1JQ0E3
LXBhdGhsZW4xMDAxHzAdBgkqhkiG9w0BCQEWEGluZm9Ad29sZnNzbC5jb20wggEi
MA0GCSqGSIb3DQEBAQUAA4IBDwAwggEKAoIBAQDZSlK8ZW6EJwhU+H1eJgYlJitj
LxHRR7SWqlNAH2CDbuJ0QQQaOhrQdopyP3DzYn8ZEzOQ629h22ZZp5ejzAqOrj6n
fJ1ioOQ/LCYUb5q8dcIGoGbedlct86G2i6Yr5Tw6JqHZh0mI+0OzZ3ej0LcslSwF
qgBR4xTXLgAN7lHqAUxTAfDFo5AHQLsi1m3knM6KkWRdGjJ/i/DGRN4m70wWEj3S
xtlv+ChThbqexfZ/FuGzaZGxT+g1whl40eeCLBbBlfSBQiUe5XE2La0zs/AY4sMs
eumwzkDzcMv3h0bxI/HYDB1ywlgrgbWp0zdYOwgcybB0MpGznhqfYiQbpf6rAgMB
AAGjggEYMIIBFDAdBgNVHQ4EFgQUOsVHUIVXCioZyhm3dlRvMLvtrp0wgdQGA1Ud
IwSBzDCByYAUJ45nEXTDJh0/7TNjs6TYHTDl6NWhgZqkgZcwgZQxCzAJBgNVBAYT
AlVTMRAwDgYDVQQIDAdNb250YW5hMRAwDgYDVQQHDAdCb3plbWFuMREwDwYDVQQK
DAhTYXd0b290aDETMBEGA1UECwwKQ29uc3VsdGluZzEYMBYGA1UEAwwPd3d3Lndv
bGZzc2wuY29tMR8wHQYJKoZIhvcNAQkBFhBpbmZvQHdvbGZzc2wuY29tghReuqT0
sfdIJeNfm9qhE+3VKwNnFTAPBgNVHRMECDAGAQH/AgFkMAsGA1UdDwQEAwIBBjAN
BgkqhkiG9w0BAQsFAAOCAQEAi2MjycWX5XwZLo7ZRuYoNZ/BQ3sTpf9X5xAvyYYJ
AJEUeFMfU9fUyDbAnDr8YmCA1WGmO6eFqDssnZMoVz98k2o6frhr08hb5Ixu80n8
mxvVi2alshEia9OktcaszZVoBmJHzafMNsT37UG0YE7dDqIlgeUFZd0uqlBCOQXm
tvUZ0elQ41fVOnjL7sbTRlF2IntsdVm4e+VDUgR3LCQPbNXM3ubDKTnx2zqHfD0+
BNE2uGdYBVXwsTnG0Nz/MSSX7VZ7D0Q0mxm3MYMmy1HfnnVy6LUCv0ukPv2c63YH
2Pkkpe7N+hpirZK8elCQrRMsj2kblz4yYVOZnNtgvanXVg==
-----END CERTIFICATE-----
