Certificate:
    Data:
        Version: 3 (0x2)
        Serial Number: 2 (0x2)
    Signature Algorithm: sha256WithRSAEncryption
        Issuer: C = US, ST = Washington, L = Seattle, O = wolfSSL, OU = Engineering, CN = wolfSSL root CA, emailAddress = info@wolfssl.com
        Validity
            Not Before: Jan 29 07:48:46 2021 GMT
            Not After : Oct 26 07:48:46 2023 GMT
        Subject: C = US, ST = Washington, L = Seattle, O = wolfSSL, OU = Engineering, CN = wolfSSL intermediate CA 2, emailAddress = info@wolfssl.com
        Subject Public Key Info:
            Public Key Algorithm: rsaEncryption
                Public-Key: (2048 bit)
                Modulus:
                    00:d0:20:3c:35:19:6f:2c:44:b4:7e:42:c7:75:b4:
                    6a:2b:a9:23:85:bf:87:b4:ee:ca:d7:4b:1f:31:d7:
                    11:02:a1:ab:58:3d:fb:dc:51:ca:3a:1d:1f:95:a6:
                    56:82:f7:8f:ff:6b:50:bb:ea:10:e1:47:1d:35:77:
                    2e:4b:28:c5:53:46:23:2b:82:fd:5a:d3:f4:21:db:
                    0e:e0:f2:76:33:47:b3:00:be:3a:b1:23:98:53:eb:
                    ea:a0:de:1b:cc:05:4e:ee:63:a8:2c:93:24:d6:98:
                    78:74:03:e4:c8:89:43:61:f1:25:b8:cd:3b:87:c1:
                    31:25:fd:ba:4c:fc:29:94:45:9e:69:d7:67:0a:8a:
                    8e:d5:52:93:30:a2:0e:dd:6a:1c:b0:94:77:db:52:
                    52:b7:89:21:be:96:75:24:cb:e9:49:df:81:9d:9d:
                    f8:55:7d:01:2a:eb:78:03:12:e2:20:6e:db:63:35:
                    cd:a1:96:f0:f8:8c:20:35:69:87:01:ca:b4:54:36:
                    a0:15:e0:23:7d:b9:fb:be:99:05:50:f0:bf:ec:7f:
                    12:e1:3d:75:15:4e:c8:c2:30:e6:8b:fe:e5:8b:55:
                    f8:44:5e:e5:e3:56:e0:66:2d:6f:42:5a:45:6b:96:
                    aa:c7:5d:41:08:5f:ce:d7:dc:9f:20:e4:46:78:ff:
                    d9:99
                Exponent: 65537 (0x10001)
        X509v3 extensions:
            X509v3 Basic Constraints: 
                CA:TRUE
            X509v3 Subject Key Identifier: 
                05:D1:BA:86:00:A2:EE:2A:05:24:B7:11:AD:2D:60:F1:90:14:8F:17
            X509v3 Authority Key Identifier: 
                keyid:73:B0:1C:A4:2F:82:CB:CF:47:A5:38:D7:B0:04:82:3A:7E:72:15:21
                DirName:/C=US/ST=Washington/L=Seattle/O=wolfSSL/OU=Engineering/CN=wolfSSL root CA/emailAddress=info@wolfssl.com
                serial:63

            X509v3 Key Usage: 
                Certificate Sign, CRL Sign
            Authority Information Access: 
                OCSP - URI:http://127.0.0.1:22220

    Signature Algorithm: sha256WithRSAEncryption
         9e:4a:94:a2:95:18:0d:a4:9d:9d:87:1a:1b:db:c4:0a:a2:7c:
         b5:a0:de:5d:49:58:bc:96:e0:c7:01:d9:ee:12:8e:6f:ad:51:
         3d:e3:d0:1c:06:2c:76:67:e6:fc:7d:55:37:0a:6a:5d:d0:d6:
         02:17:fd:c9:3d:fd:27:f3:22:8e:ce:c3:99:1a:03:2f:17:95:
         62:32:d2:53:38:bb:02:9e:49:dd:04:40:76:b8:36:1e:b9:9b:
         88:31:c4:13:95:ed:3f:9c:83:1f:81:bc:8b:16:35:20:83:be:
         0e:13:98:3f:67:6a:c6:fe:9f:f3:70:0d:40:e7:aa:5e:c8:01:
         67:da:01:86:0c:cf:03:77:c4:eb:0f:8c:55:72:5c:6f:a4:fc:
         fb:1a:cf:a2:8b:e0:2b:1b:bf:b1:16:b6:60:14:ac:a4:bc:21:
         c8:c8:6e:98:58:f6:d6:65:a4:a7:86:52:04:5a:ab:f9:ae:d9:
         03:ab:c4:d4:9b:c5:1e:94:9a:ba:cb:34:30:57:b2:41:be:58:
         50:81:12:22:66:7d:21:ed:28:92:69:54:d8:8b:af:8e:92:c0:
         82:17:fa:c8:05:6e:20:fd:d3:57:5e:ed:2c:ca:43:8a:82:2a:
         b5:56:45:58:53:f8:24:d2:64:49:fe:ec:6e:63:cf:58:eb:64:
         ff:20:4b:d1
-----BEGIN CERTIFICATE-----
MIIE8DCCA9igAwIBAgIBAjANBgkqhkiG9w0BAQsFADCBlzELMAkGA1UEBhMCVVMx
EzARBgNVBAgMCldhc2hpbmd0b24xEDAOBgNVBAcMB1NlYXR0bGUxEDAOBgNVBAoM
B3dvbGZTU0wxFDASBgNVBAsMC0VuZ2luZWVyaW5nMRgwFgYDVQQDDA93b2xmU1NM
IHJvb3QgQ0ExHzAdBgkqhkiG9w0BCQEWEGluZm9Ad29sZnNzbC5jb20wHhcNMjEw
MTI5MDc0ODQ2WhcNMjMxMDI2MDc0ODQ2WjCBoTELMAkGA1UEBhMCVVMxEzARBgNV
BAgMCldhc2hpbmd0b24xEDAOBgNVBAcMB1NlYXR0bGUxEDAOBgNVBAoMB3dvbGZT
U0wxFDASBgNVBAsMC0VuZ2luZWVyaW5nMSIwIAYDVQQDDBl3b2xmU1NMIGludGVy
bWVkaWF0ZSBDQSAyMR8wHQYJKoZIhvcNAQkBFhBpbmZvQHdvbGZzc2wuY29tMIIB
IjANBgkqhkiG9w0BAQEFAAOCAQ8AMIIBCgKCAQEA0CA8NRlvLES0fkLHdbRqK6kj
hb+HtO7K10sfMdcRAqGrWD373FHKOh0flaZWgveP/2tQu+oQ4UcdNXcuSyjFU0Yj
K4L9WtP0IdsO4PJ2M0ezAL46sSOYU+vqoN4bzAVO7mOoLJMk1ph4dAPkyIlDYfEl
uM07h8ExJf26TPwplEWeaddnCoqO1VKTMKIO3WocsJR321JSt4khvpZ1JMvpSd+B
nZ34VX0BKut4AxLiIG7bYzXNoZbw+IwgNWmHAcq0VDagFeAjfbn7vpkFUPC/7H8S
4T11FU7IwjDmi/7li1X4RF7l41bgZi1vQlpFa5aqx11BCF/O19yfIORGeP/ZmQID
AQABo4IBOTCCATUwDAYDVR0TBAUwAwEB/zAdBgNVHQ4EFgQUBdG6hgCi7ioFJLcR
rS1g8ZAUjxcwgcQGA1UdIwSBvDCBuYAUc7AcpC+Cy89HpTjXsASCOn5yFSGhgZ2k
gZowgZcxCzAJBgNVBAYTAlVTMRMwEQYDVQQIDApXYXNoaW5ndG9uMRAwDgYDVQQH
DAdTZWF0dGxlMRAwDgYDVQQKDAd3b2xmU1NMMRQwEgYDVQQLDAtFbmdpbmVlcmlu
ZzEYMBYGA1UEAwwPd29sZlNTTCByb290IENBMR8wHQYJKoZIhvcNAQkBFhBpbmZv
QHdvbGZzc2wuY29tggFjMAsGA1UdDwQEAwIBBjAyBggrBgEFBQcBAQQmMCQwIgYI
KwYBBQUHMAGGFmh0dHA6Ly8xMjcuMC4wLjE6MjIyMjAwDQYJKoZIhvcNAQELBQAD
ggEBAJ5KlKKVGA2knZ2HGhvbxAqifLWg3l1JWLyW4McB2e4Sjm+tUT3j0BwGLHZn
5vx9VTcKal3Q1gIX/ck9/SfzIo7Ow5kaAy8XlWIy0lM4uwKeSd0EQHa4Nh65m4gx
xBOV7T+cgx+BvIsWNSCDvg4TmD9nasb+n/NwDUDnql7IAWfaAYYMzwN3xOsPjFVy
XG+k/Psaz6KL4Csbv7EWtmAUrKS8IcjIbphY9tZlpKeGUgRaq/mu2QOrxNSbxR6U
mrrLNDBXskG+WFCBEiJmfSHtKJJpVNiLr46SwIIX+sgFbiD901de7SzKQ4qCKrVW
RVhT+CTSZEn+7G5jz1jrZP8gS9E=
-----END CERTIFICATE-----
Certificate:
    Data:
        Version: 3 (0x2)
        Serial Number: 99 (0x63)
    Signature Algorithm: sha256WithRSAEncryption
        Issuer: C = US, ST = Washington, L = Seattle, O = wolfSSL, OU = Engineering, CN = wolfSSL root CA, emailAddress = info@wolfssl.com
        Validity
            Not Before: Jan 29 07:48:45 2021 GMT
            Not After : Oct 26 07:48:45 2023 GMT
        Subject: C = US, ST = Washington, L = Seattle, O = wolfSSL, OU = Engineering, CN = wolfSSL root CA, emailAddress = info@wolfssl.com
        Subject Public Key Info:
            Public Key Algorithm: rsaEncryption
                Public-Key: (2048 bit)
                Modulus:
                    00:ab:2c:b4:2f:1d:06:09:ef:4e:29:86:84:7e:cc:
                    bf:a6:79:7c:f0:c0:c1:64:25:8c:75:b7:10:05:ca:
                    48:27:0c:0e:32:1c:b0:fe:99:85:39:b6:b9:a2:f7:
                    27:ff:6d:3c:8c:16:73:29:21:7f:8b:a6:54:71:90:
                    ad:cc:05:b9:9f:15:c7:0a:3f:5f:69:f4:0a:5f:8c:
                    71:b5:2c:bf:66:e2:03:9a:32:f4:d2:ec:2a:89:4b:
                    f9:35:88:14:33:47:4e:2e:05:79:01:ed:64:36:76:
                    b9:f8:85:cd:01:88:ac:c5:b2:b1:59:b8:cd:5a:f4:
                    09:09:38:9b:da:5a:cf:ce:78:99:1f:49:3d:41:d6:
                    06:7c:52:99:c8:97:d1:b3:80:3a:a2:4f:36:c4:c5:
                    96:30:77:31:38:c8:70:cc:e1:67:06:b3:2b:2f:93:
                    b5:69:cf:83:7e:88:53:9b:0f:46:21:4c:d6:05:36:
                    44:99:60:68:47:e5:32:01:12:d4:10:73:ae:9a:34:
                    94:fa:6e:b8:58:4f:7b:5b:8a:92:97:ad:fd:97:b9:
                    75:ca:c2:d4:45:7d:17:6b:cd:2f:f3:63:7a:0e:30:
                    b5:0b:a9:d9:a6:7c:74:60:9d:cc:09:03:43:f1:0f:
                    90:d3:b7:fe:6c:9f:d9:cd:78:4b:15:ae:8c:5b:f9:
                    99:81
                Exponent: 65537 (0x10001)
        X509v3 extensions:
            X509v3 Basic Constraints: 
                CA:TRUE
            X509v3 Subject Key Identifier: 
                73:B0:1C:A4:2F:82:CB:CF:47:A5:38:D7:B0:04:82:3A:7E:72:15:21
            X509v3 Authority Key Identifier: 
                keyid:73:B0:1C:A4:2F:82:CB:CF:47:A5:38:D7:B0:04:82:3A:7E:72:15:21
                DirName:/C=US/ST=Washington/L=Seattle/O=wolfSSL/OU=Engineering/CN=wolfSSL root CA/emailAddress=info@wolfssl.com
                serial:63

            X509v3 Key Usage: 
                Certificate Sign, CRL Sign
            Authority Information Access: 
                OCSP - URI:http://127.0.0.1:22220

    Signature Algorithm: sha256WithRSAEncryption
         2f:ff:d6:ca:a0:9b:48:f2:a0:11:38:7e:46:d8:0d:cb:3c:6e:
         f6:cd:95:a8:16:a5:20:43:53:8e:01:87:3d:d6:0c:69:c5:e3:
         0c:89:35:ce:cc:89:be:9e:7e:88:15:fa:51:f6:bb:5a:78:14:
         1d:9e:fa:35:da:62:78:fe:2a:cf:4c:31:9d:12:02:f6:43:fe:
         26:b8:54:f5:88:5b:74:8c:b0:e6:34:87:67:f1:ca:20:f2:50:
         b4:fa:d1:b8:cd:87:28:0d:a4:0c:cb:3f:e2:52:c7:8e:8b:60:
         32:60:8b:dc:d8:95:ef:1c:e3:dc:ca:c9:f7:85:1c:3d:27:63:
         a9:b2:c6:b9:c2:ee:6b:44:91:bb:bf:e9:f1:1c:0a:2e:28:b1:
         e9:21:d9:0a:d3:c7:a2:18:41:76:56:b1:06:96:f6:f0:c9:fc:
         f5:7a:1e:6a:cc:8e:bf:8f:22:a0:d2:83:d5:d6:55:05:f7:59:
         3e:ea:8c:f5:b9:db:b7:6b:21:4f:81:41:83:e0:12:38:e9:1d:
         eb:0a:39:e1:29:67:36:fa:90:b7:bb:b0:34:a2:a7:61:33:01:
         31:33:f9:0d:01:c5:0e:75:9d:37:68:ca:1d:00:1f:4e:7c:36:
         9b:3e:8f:02:37:00:ae:e1:1e:d1:7e:71:b1:3e:8b:05:11:cd:
         f1:da:ac:dc
-----BEGIN CERTIFICATE-----
MIIE5jCCA86gAwIBAgIBYzANBgkqhkiG9w0BAQsFADCBlzELMAkGA1UEBhMCVVMx
EzARBgNVBAgMCldhc2hpbmd0b24xEDAOBgNVBAcMB1NlYXR0bGUxEDAOBgNVBAoM
B3dvbGZTU0wxFDASBgNVBAsMC0VuZ2luZWVyaW5nMRgwFgYDVQQDDA93b2xmU1NM
IHJvb3QgQ0ExHzAdBgkqhkiG9w0BCQEWEGluZm9Ad29sZnNzbC5jb20wHhcNMjEw
MTI5MDc0ODQ1WhcNMjMxMDI2MDc0ODQ1WjCBlzELMAkGA1UEBhMCVVMxEzARBgNV
BAgMCldhc2hpbmd0b24xEDAOBgNVBAcMB1NlYXR0bGUxEDAOBgNVBAoMB3dvbGZT
U0wxFDASBgNVBAsMC0VuZ2luZWVyaW5nMRgwFgYDVQQDDA93b2xmU1NMIHJvb3Qg
Q0ExHzAdBgkqhkiG9w0BCQEWEGluZm9Ad29sZnNzbC5jb20wggEiMA0GCSqGSIb3
DQEBAQUAA4IBDwAwggEKAoIBAQCrLLQvHQYJ704phoR+zL+meXzwwMFkJYx1txAF
ykgnDA4yHLD+mYU5trmi9yf/bTyMFnMpIX+LplRxkK3MBbmfFccKP19p9ApfjHG1
LL9m4gOaMvTS7CqJS/k1iBQzR04uBXkB7WQ2drn4hc0BiKzFsrFZuM1a9AkJOJva
Ws/OeJkfST1B1gZ8UpnIl9GzgDqiTzbExZYwdzE4yHDM4WcGsysvk7Vpz4N+iFOb
D0YhTNYFNkSZYGhH5TIBEtQQc66aNJT6brhYT3tbipKXrf2XuXXKwtRFfRdrzS/z
Y3oOMLULqdmmfHRgncwJA0PxD5DTt/5sn9nNeEsVroxb+ZmBAgMBAAGjggE5MIIB
NTAMBgNVHRMEBTADAQH/MB0GA1UdDgQWBBRzsBykL4LLz0elONewBII6fnIVITCB
xAYDVR0jBIG8MIG5gBRzsBykL4LLz0elONewBII6fnIVIaGBnaSBmjCBlzELMAkG
A1UEBhMCVVMxEzARBgNVBAgMCldhc2hpbmd0b24xEDAOBgNVBAcMB1NlYXR0bGUx
EDAOBgNVBAoMB3dvbGZTU0wxFDASBgNVBAsMC0VuZ2luZWVyaW5nMRgwFgYDVQQD
DA93b2xmU1NMIHJvb3QgQ0ExHzAdBgkqhkiG9w0BCQEWEGluZm9Ad29sZnNzbC5j
b22CAWMwCwYDVR0PBAQDAgEGMDIGCCsGAQUFBwEBBCYwJDAiBggrBgEFBQcwAYYW
aHR0cDovLzEyNy4wLjAuMToyMjIyMDANBgkqhkiG9w0BAQsFAAOCAQEAL//WyqCb
SPKgETh+RtgNyzxu9s2VqBalIENTjgGHPdYMacXjDIk1zsyJvp5+iBX6Ufa7WngU
HZ76NdpieP4qz0wxnRIC9kP+JrhU9YhbdIyw5jSHZ/HKIPJQtPrRuM2HKA2kDMs/
4lLHjotgMmCL3NiV7xzj3MrJ94UcPSdjqbLGucLua0SRu7/p8RwKLiix6SHZCtPH
ohhBdlaxBpb28Mn89XoeasyOv48ioNKD1dZVBfdZPuqM9bnbt2shT4FBg+ASOOkd
6wo54SlnNvqQt7uwNKKnYTMBMTP5DQHFDnWdN2jKHQAfTnw2mz6PAjcAruEe0X5x
sT6LBRHN8dqs3A==
-----END CERTIFICATE-----
