Certificate:
    Data:
        Version: 3 (0x2)
        Serial Number: 9 (0x9)
    Signature Algorithm: sha256WithRSAEncryption
        Issuer: C = US, ST = Washington, L = Seattle, O = wolfSSL, OU = Engineering, CN = wolfSSL REVOKED intermediate CA, emailAddress = info@wolfssl.com
        Validity
            Not Before: Jan 29 07:48:47 2021 GMT
            Not After : Oct 26 07:48:47 2023 GMT
        Subject: C = US, ST = Washington, L = Seattle, O = wolfSSL, OU = Engineering, CN = www5.wolfssl.com, emailAddress = info@wolfssl.com
        Subject Public Key Info:
            Public Key Algorithm: rsaEncryption
                Public-Key: (2048 bit)
                Modulus:
                    00:ac:73:6d:e9:fa:8c:36:72:3e:89:3b:52:29:bd:
                    14:70:a2:00:b4:08:58:b6:c6:c0:bf:80:6a:1f:a5:
                    f0:15:fc:f4:19:a2:67:f9:6a:5d:22:69:2e:9c:29:
                    53:1e:5a:4a:d1:27:d5:b8:3b:65:37:8a:a2:eb:1b:
                    d4:5d:90:11:35:11:af:e3:d1:8c:24:5b:b5:90:c0:
                    bf:de:cb:7a:05:71:1b:ef:76:d7:9d:43:47:85:dc:
                    24:b8:b8:54:fc:53:bf:c3:fd:e1:12:c6:fc:1b:6f:
                    95:aa:cf:bb:8e:22:af:83:bd:4e:6b:66:fe:7e:7e:
                    98:6f:b1:b9:fc:f9:8a:8a:18:92:9a:4c:27:5d:78:
                    6b:e9:d0:14:1c:ed:69:6d:29:4c:4e:52:e6:92:24:
                    53:b0:2e:c3:a4:94:8f:20:1c:29:5c:97:70:1a:32:
                    85:90:71:f7:d7:a5:99:4f:48:c7:3d:fc:3d:a7:e1:
                    f9:96:ea:c1:6b:ea:31:e0:9b:fb:68:3e:4b:ad:a4:
                    2b:06:90:c2:b4:27:ea:f3:a3:3e:6e:32:75:aa:70:
                    6a:e3:33:29:fb:42:09:94:79:a5:eb:3c:4e:89:02:
                    77:08:fd:da:ba:fc:14:c6:8e:c1:5e:db:6d:d0:07:
                    4f:02:79:60:e7:95:c3:c8:f4:54:83:21:12:79:03:
                    7f:e1
                Exponent: 65537 (0x10001)
        X509v3 extensions:
            X509v3 Basic Constraints: 
                CA:FALSE
            X509v3 Subject Key Identifier: 
                2A:48:B6:8B:00:F0:4B:35:73:94:07:87:52:A3:69:5E:E6:D8:42:87
            X509v3 Authority Key Identifier: 
                keyid:BB:15:9E:32:4D:E0:F8:AA:8A:B0:2E:0C:17:2B:5A:41:74:4B:06:45
                DirName:/C=US/ST=Washington/L=Seattle/O=wolfSSL/OU=Engineering/CN=wolfSSL root CA/emailAddress=info@wolfssl.com
                serial:03

            X509v3 Key Usage: 
                Digital Signature, Non Repudiation, Key Encipherment
            Authority Information Access: 
                OCSP - URI:http://127.0.0.1:22223

    Signature Algorithm: sha256WithRSAEncryption
         0b:7e:4c:02:99:c6:2e:ad:d7:ec:c9:c9:47:50:b2:3f:17:e9:
         86:53:f9:7d:c4:ce:bd:cf:0d:c8:f8:30:2a:7d:ff:51:9d:8d:
         28:a4:9f:a4:4b:d7:76:e8:e2:48:32:4c:b5:43:b7:80:6b:47:
         c6:51:78:41:be:f8:3e:a2:a8:ea:1e:c9:a8:8c:39:bd:63:f8:
         01:28:60:fe:cf:44:b9:e1:bc:4c:29:69:84:9b:ac:68:96:4a:
         20:08:b0:5c:bf:67:23:5f:7a:f0:2c:db:78:f8:89:04:97:01:
         6e:32:65:56:c5:2a:55:68:87:c3:a9:6c:df:03:b0:20:b5:a3:
         3c:49:56:a9:d6:53:72:a3:fe:36:fa:d0:d9:01:e0:e0:13:08:
         0c:34:f8:66:72:94:73:32:fc:30:f9:ac:d9:14:05:c6:35:20:
         1d:50:33:35:1f:05:a0:48:d8:72:35:49:40:08:01:c4:b8:08:
         a3:46:27:90:13:34:f1:b9:64:c5:61:fd:58:7c:99:53:a4:6c:
         ba:c3:7a:2c:24:6d:ac:9d:99:74:57:69:d7:69:cd:56:81:12:
         a5:5c:40:f2:1a:14:31:a4:2f:bb:34:ea:85:8a:39:e6:45:0b:
         4c:57:9c:ff:22:d4:a5:8e:6e:9c:2d:40:c3:c4:e7:2d:34:b2:
         f8:95:63:03
-----BEGIN CERTIFICATE-----
MIIE9DCCA9ygAwIBAgIBCTANBgkqhkiG9w0BAQsFADCBpzELMAkGA1UEBhMCVVMx
EzARBgNVBAgMCldhc2hpbmd0b24xEDAOBgNVBAcMB1NlYXR0bGUxEDAOBgNVBAoM
B3dvbGZTU0wxFDASBgNVBAsMC0VuZ2luZWVyaW5nMSgwJgYDVQQDDB93b2xmU1NM
IFJFVk9LRUQgaW50ZXJtZWRpYXRlIENBMR8wHQYJKoZIhvcNAQkBFhBpbmZvQHdv
bGZzc2wuY29tMB4XDTIxMDEyOTA3NDg0N1oXDTIzMTAyNjA3NDg0N1owgZgxCzAJ
BgNVBAYTAlVTMRMwEQYDVQQIDApXYXNoaW5ndG9uMRAwDgYDVQQHDAdTZWF0dGxl
MRAwDgYDVQQKDAd3b2xmU1NMMRQwEgYDVQQLDAtFbmdpbmVlcmluZzEZMBcGA1UE
AwwQd3d3NS53b2xmc3NsLmNvbTEfMB0GCSqGSIb3DQEJARYQaW5mb0B3b2xmc3Ns
LmNvbTCCASIwDQYJKoZIhvcNAQEBBQADggEPADCCAQoCggEBAKxzben6jDZyPok7
Uim9FHCiALQIWLbGwL+Aah+l8BX89BmiZ/lqXSJpLpwpUx5aStEn1bg7ZTeKousb
1F2QETURr+PRjCRbtZDAv97LegVxG+92151DR4XcJLi4VPxTv8P94RLG/BtvlarP
u44ir4O9Tmtm/n5+mG+xufz5iooYkppMJ114a+nQFBztaW0pTE5S5pIkU7Auw6SU
jyAcKVyXcBoyhZBx99elmU9Ixz38Pafh+ZbqwWvqMeCb+2g+S62kKwaQwrQn6vOj
Pm4ydapwauMzKftCCZR5pes8TokCdwj92rr8FMaOwV7bbdAHTwJ5YOeVw8j0VIMh
EnkDf+ECAwEAAaOCATYwggEyMAkGA1UdEwQCMAAwHQYDVR0OBBYEFCpItosA8Es1
c5QHh1KjaV7m2EKHMIHEBgNVHSMEgbwwgbmAFLsVnjJN4PiqirAuDBcrWkF0SwZF
oYGdpIGaMIGXMQswCQYDVQQGEwJVUzETMBEGA1UECAwKV2FzaGluZ3RvbjEQMA4G
A1UEBwwHU2VhdHRsZTEQMA4GA1UECgwHd29sZlNTTDEUMBIGA1UECwwLRW5naW5l
ZXJpbmcxGDAWBgNVBAMMD3dvbGZTU0wgcm9vdCBDQTEfMB0GCSqGSIb3DQEJARYQ
aW5mb0B3b2xmc3NsLmNvbYIBAzALBgNVHQ8EBAMCBeAwMgYIKwYBBQUHAQEEJjAk
MCIGCCsGAQUFBzABhhZodHRwOi8vMTI3LjAuMC4xOjIyMjIzMA0GCSqGSIb3DQEB
CwUAA4IBAQALfkwCmcYurdfsyclHULI/F+mGU/l9xM69zw3I+DAqff9RnY0opJ+k
S9d26OJIMky1Q7eAa0fGUXhBvvg+oqjqHsmojDm9Y/gBKGD+z0S54bxMKWmEm6xo
lkogCLBcv2cjX3rwLNt4+IkElwFuMmVWxSpVaIfDqWzfA7AgtaM8SVap1lNyo/42
+tDZAeDgEwgMNPhmcpRzMvww+azZFAXGNSAdUDM1HwWgSNhyNUlACAHEuAijRieQ
EzTxuWTFYf1YfJlTpGy6w3osJG2snZl0V2nXac1WgRKlXEDyGhQxpC+7NOqFijnm
RQtMV5z/ItSljm6cLUDDxOctNLL4lWMD
-----END CERTIFICATE-----
Certificate:
    Data:
        Version: 3 (0x2)
        Serial Number: 3 (0x3)
    Signature Algorithm: sha256WithRSAEncryption
        Issuer: C = US, ST = Washington, L = Seattle, O = wolfSSL, OU = Engineering, CN = wolfSSL root CA, emailAddress = info@wolfssl.com
        Validity
            Not Before: Jan 29 07:48:46 2021 GMT
            Not After : Oct 26 07:48:46 2023 GMT
        Subject: C = US, ST = Washington, L = Seattle, O = wolfSSL, OU = Engineering, CN = wolfSSL REVOKED intermediate CA, emailAddress = info@wolfssl.com
        Subject Public Key Info:
            Public Key Algorithm: rsaEncryption
                Public-Key: (2048 bit)
                Modulus:
                    00:de:c5:04:10:7d:c2:21:e9:12:45:da:d5:ba:28:
                    fd:a6:f4:30:44:a0:df:f9:70:5e:17:26:97:59:5c:
                    31:eb:13:70:ea:4a:dd:58:3e:4f:33:14:66:59:69:
                    7a:aa:90:e0:7c:c4:b2:36:c1:0a:f4:df:3e:34:6c:
                    1a:e9:2b:f1:a5:92:7e:a9:68:70:ba:a4:68:88:f3:
                    ec:10:40:64:a5:64:7d:d9:1e:51:49:9d:7f:c8:cc:
                    2b:6d:71:2a:06:ff:e6:1f:84:28:8a:c1:ed:a8:52:
                    f4:89:a5:c0:77:d8:13:66:c2:65:a5:63:03:98:b0:
                    4b:05:4f:0c:84:a0:f4:2d:72:73:6b:fa:0d:e1:cf:
                    45:27:ed:a3:8c:02:d7:ee:99:e2:a1:f0:e3:a0:ad:
                    69:ed:59:e4:27:41:8f:ef:fa:83:73:8f:5f:2b:68:
                    89:13:46:26:dc:f6:28:6b:3b:b2:b8:9b:52:2a:17:
                    1b:dc:72:45:73:da:75:24:35:8b:00:5e:23:37:64:
                    6a:16:74:b8:ee:fe:b7:11:71:be:0a:73:c8:54:c2:
                    d9:04:d2:1b:f5:53:ac:8d:2a:4f:fe:33:79:e6:5e:
                    e7:f3:86:d3:dc:bb:4b:d7:39:7f:5b:3c:67:fe:5e:
                    88:51:05:96:f2:b4:9a:45:09:4c:51:f0:6a:4d:88:
                    2a:17
                Exponent: 65537 (0x10001)
        X509v3 extensions:
            X509v3 Basic Constraints: 
                CA:TRUE
            X509v3 Subject Key Identifier: 
                BB:15:9E:32:4D:E0:F8:AA:8A:B0:2E:0C:17:2B:5A:41:74:4B:06:45
            X509v3 Authority Key Identifier: 
                keyid:73:B0:1C:A4:2F:82:CB:CF:47:A5:38:D7:B0:04:82:3A:7E:72:15:21
                DirName:/C=US/ST=Washington/L=Seattle/O=wolfSSL/OU=Engineering/CN=wolfSSL root CA/emailAddress=info@wolfssl.com
                serial:63

            X509v3 Key Usage: 
                Certificate Sign, CRL Sign
            Authority Information Access: 
                OCSP - URI:http://127.0.0.1:22220

    Signature Algorithm: sha256WithRSAEncryption
         2e:c4:d4:56:07:cd:05:53:94:c9:55:fd:22:10:f6:3f:fa:c1:
         36:2d:ad:37:62:ab:1e:2d:d2:af:f5:7d:3f:e0:b8:32:ff:35:
         fc:d8:75:99:a9:8b:6d:41:ca:28:9f:ae:87:b5:e3:c6:7a:74:
         62:19:b0:bc:37:06:28:3c:36:9a:96:9c:8c:e1:ef:36:08:23:
         da:54:c6:b6:81:19:36:b0:b2:c7:cb:81:e5:69:aa:5d:3b:ce:
         64:d8:b1:58:bd:81:7f:05:05:1c:37:70:ed:d1:7b:26:99:ca:
         57:53:2e:77:bf:75:0c:00:13:4d:77:24:82:fe:36:1c:36:ee:
         08:3a:fc:08:2a:fd:79:b5:77:cb:45:4f:d4:e2:c4:89:b7:d1:
         93:82:24:eb:6b:92:98:cd:5e:15:51:b0:60:83:8a:60:80:aa:
         5d:bd:c2:ee:68:00:32:f7:d6:bc:c2:cf:28:4a:84:9c:17:00:
         33:5c:8e:81:91:25:f2:0f:23:f2:a3:a6:ff:53:22:2e:df:af:
         89:0d:cb:65:c2:3b:db:3f:0e:cb:3b:b5:63:87:de:0c:6f:03:
         b5:f9:cd:e2:69:7a:46:f0:13:c5:ae:ee:84:e9:f7:d7:05:c4:
         f4:f1:a1:93:d1:fa:aa:6b:8f:44:e5:1f:bb:bd:5c:87:d9:76:
         48:a8:54:70
-----BEGIN CERTIFICATE-----
MIIE9jCCA96gAwIBAgIBAzANBgkqhkiG9w0BAQsFADCBlzELMAkGA1UEBhMCVVMx
EzARBgNVBAgMCldhc2hpbmd0b24xEDAOBgNVBAcMB1NlYXR0bGUxEDAOBgNVBAoM
B3dvbGZTU0wxFDASBgNVBAsMC0VuZ2luZWVyaW5nMRgwFgYDVQQDDA93b2xmU1NM
IHJvb3QgQ0ExHzAdBgkqhkiG9w0BCQEWEGluZm9Ad29sZnNzbC5jb20wHhcNMjEw
MTI5MDc0ODQ2WhcNMjMxMDI2MDc0ODQ2WjCBpzELMAkGA1UEBhMCVVMxEzARBgNV
BAgMCldhc2hpbmd0b24xEDAOBgNVBAcMB1NlYXR0bGUxEDAOBgNVBAoMB3dvbGZT
U0wxFDASBgNVBAsMC0VuZ2luZWVyaW5nMSgwJgYDVQQDDB93b2xmU1NMIFJFVk9L
RUQgaW50ZXJtZWRpYXRlIENBMR8wHQYJKoZIhvcNAQkBFhBpbmZvQHdvbGZzc2wu
Y29tMIIBIjANBgkqhkiG9w0BAQEFAAOCAQ8AMIIBCgKCAQEA3sUEEH3CIekSRdrV
uij9pvQwRKDf+XBeFyaXWVwx6xNw6krdWD5PMxRmWWl6qpDgfMSyNsEK9N8+NGwa
6SvxpZJ+qWhwuqRoiPPsEEBkpWR92R5RSZ1/yMwrbXEqBv/mH4QoisHtqFL0iaXA
d9gTZsJlpWMDmLBLBU8MhKD0LXJza/oN4c9FJ+2jjALX7pniofDjoK1p7VnkJ0GP
7/qDc49fK2iJE0Ym3PYoazuyuJtSKhcb3HJFc9p1JDWLAF4jN2RqFnS47v63EXG+
CnPIVMLZBNIb9VOsjSpP/jN55l7n84bT3LtL1zl/Wzxn/l6IUQWW8rSaRQlMUfBq
TYgqFwIDAQABo4IBOTCCATUwDAYDVR0TBAUwAwEB/zAdBgNVHQ4EFgQUuxWeMk3g
+KqKsC4MFytaQXRLBkUwgcQGA1UdIwSBvDCBuYAUc7AcpC+Cy89HpTjXsASCOn5y
FSGhgZ2kgZowgZcxCzAJBgNVBAYTAlVTMRMwEQYDVQQIDApXYXNoaW5ndG9uMRAw
DgYDVQQHDAdTZWF0dGxlMRAwDgYDVQQKDAd3b2xmU1NMMRQwEgYDVQQLDAtFbmdp
bmVlcmluZzEYMBYGA1UEAwwPd29sZlNTTCByb290IENBMR8wHQYJKoZIhvcNAQkB
FhBpbmZvQHdvbGZzc2wuY29tggFjMAsGA1UdDwQEAwIBBjAyBggrBgEFBQcBAQQm
MCQwIgYIKwYBBQUHMAGGFmh0dHA6Ly8xMjcuMC4wLjE6MjIyMjAwDQYJKoZIhvcN
AQELBQADggEBAC7E1FYHzQVTlMlV/SIQ9j/6wTYtrTdiqx4t0q/1fT/guDL/NfzY
dZmpi21Byiifroe148Z6dGIZsLw3Big8NpqWnIzh7zYII9pUxraBGTawssfLgeVp
ql07zmTYsVi9gX8FBRw3cO3ReyaZyldTLne/dQwAE013JIL+Nhw27gg6/Agq/Xm1
d8tFT9TixIm30ZOCJOtrkpjNXhVRsGCDimCAql29wu5oADL31rzCzyhKhJwXADNc
joGRJfIPI/Kjpv9TIi7fr4kNy2XCO9s/Dss7tWOH3gxvA7X5zeJpekbwE8Wu7oTp
99cFxPTxoZPR+qprj0TlH7u9XIfZdkioVHA=
-----END CERTIFICATE-----
Certificate:
    Data:
        Version: 3 (0x2)
        Serial Number: 99 (0x63)
    Signature Algorithm: sha256WithRSAEncryption
        Issuer: C = US, ST = Washington, L = Seattle, O = wolfSSL, OU = Engineering, CN = wolfSSL root CA, emailAddress = info@wolfssl.com
        Validity
            Not Before: Jan 29 07:48:45 2021 GMT
            Not After : Oct 26 07:48:45 2023 GMT
        Subject: C = US, ST = Washington, L = Seattle, O = wolfSSL, OU = Engineering, CN = wolfSSL root CA, emailAddress = info@wolfssl.com
        Subject Public Key Info:
            Public Key Algorithm: rsaEncryption
                Public-Key: (2048 bit)
                Modulus:
                    00:ab:2c:b4:2f:1d:06:09:ef:4e:29:86:84:7e:cc:
                    bf:a6:79:7c:f0:c0:c1:64:25:8c:75:b7:10:05:ca:
                    48:27:0c:0e:32:1c:b0:fe:99:85:39:b6:b9:a2:f7:
                    27:ff:6d:3c:8c:16:73:29:21:7f:8b:a6:54:71:90:
                    ad:cc:05:b9:9f:15:c7:0a:3f:5f:69:f4:0a:5f:8c:
                    71:b5:2c:bf:66:e2:03:9a:32:f4:d2:ec:2a:89:4b:
                    f9:35:88:14:33:47:4e:2e:05:79:01:ed:64:36:76:
                    b9:f8:85:cd:01:88:ac:c5:b2:b1:59:b8:cd:5a:f4:
                    09:09:38:9b:da:5a:cf:ce:78:99:1f:49:3d:41:d6:
                    06:7c:52:99:c8:97:d1:b3:80:3a:a2:4f:36:c4:c5:
                    96:30:77:31:38:c8:70:cc:e1:67:06:b3:2b:2f:93:
                    b5:69:cf:83:7e:88:53:9b:0f:46:21:4c:d6:05:36:
                    44:99:60:68:47:e5:32:01:12:d4:10:73:ae:9a:34:
                    94:fa:6e:b8:58:4f:7b:5b:8a:92:97:ad:fd:97:b9:
                    75:ca:c2:d4:45:7d:17:6b:cd:2f:f3:63:7a:0e:30:
                    b5:0b:a9:d9:a6:7c:74:60:9d:cc:09:03:43:f1:0f:
                    90:d3:b7:fe:6c:9f:d9:cd:78:4b:15:ae:8c:5b:f9:
                    99:81
                Exponent: 65537 (0x10001)
        X509v3 extensions:
            X509v3 Basic Constraints: 
                CA:TRUE
            X509v3 Subject Key Identifier: 
                73:B0:1C:A4:2F:82:CB:CF:47:A5:38:D7:B0:04:82:3A:7E:72:15:21
            X509v3 Authority Key Identifier: 
                keyid:73:B0:1C:A4:2F:82:CB:CF:47:A5:38:D7:B0:04:82:3A:7E:72:15:21
                DirName:/C=US/ST=Washington/L=Seattle/O=wolfSSL/OU=Engineering/CN=wolfSSL root CA/emailAddress=info@wolfssl.com
                serial:63

            X509v3 Key Usage: 
                Certificate Sign, CRL Sign
            Authority Information Access: 
                OCSP - URI:http://127.0.0.1:22220

    Signature Algorithm: sha256WithRSAEncryption
         2f:ff:d6:ca:a0:9b:48:f2:a0:11:38:7e:46:d8:0d:cb:3c:6e:
         f6:cd:95:a8:16:a5:20:43:53:8e:01:87:3d:d6:0c:69:c5:e3:
         0c:89:35:ce:cc:89:be:9e:7e:88:15:fa:51:f6:bb:5a:78:14:
         1d:9e:fa:35:da:62:78:fe:2a:cf:4c:31:9d:12:02:f6:43:fe:
         26:b8:54:f5:88:5b:74:8c:b0:e6:34:87:67:f1:ca:20:f2:50:
         b4:fa:d1:b8:cd:87:28:0d:a4:0c:cb:3f:e2:52:c7:8e:8b:60:
         32:60:8b:dc:d8:95:ef:1c:e3:dc:ca:c9:f7:85:1c:3d:27:63:
         a9:b2:c6:b9:c2:ee:6b:44:91:bb:bf:e9:f1:1c:0a:2e:28:b1:
         e9:21:d9:0a:d3:c7:a2:18:41:76:56:b1:06:96:f6:f0:c9:fc:
         f5:7a:1e:6a:cc:8e:bf:8f:22:a0:d2:83:d5:d6:55:05:f7:59:
         3e:ea:8c:f5:b9:db:b7:6b:21:4f:81:41:83:e0:12:38:e9:1d:
         eb:0a:39:e1:29:67:36:fa:90:b7:bb:b0:34:a2:a7:61:33:01:
         31:33:f9:0d:01:c5:0e:75:9d:37:68:ca:1d:00:1f:4e:7c:36:
         9b:3e:8f:02:37:00:ae:e1:1e:d1:7e:71:b1:3e:8b:05:11:cd:
         f1:da:ac:dc
-----BEGIN CERTIFICATE-----
MIIE5jCCA86gAwIBAgIBYzANBgkqhkiG9w0BAQsFADCBlzELMAkGA1UEBhMCVVMx
EzARBgNVBAgMCldhc2hpbmd0b24xEDAOBgNVBAcMB1NlYXR0bGUxEDAOBgNVBAoM
B3dvbGZTU0wxFDASBgNVBAsMC0VuZ2luZWVyaW5nMRgwFgYDVQQDDA93b2xmU1NM
IHJvb3QgQ0ExHzAdBgkqhkiG9w0BCQEWEGluZm9Ad29sZnNzbC5jb20wHhcNMjEw
MTI5MDc0ODQ1WhcNMjMxMDI2MDc0ODQ1WjCBlzELMAkGA1UEBhMCVVMxEzARBgNV
BAgMCldhc2hpbmd0b24xEDAOBgNVBAcMB1NlYXR0bGUxEDAOBgNVBAoMB3dvbGZT
U0wxFDASBgNVBAsMC0VuZ2luZWVyaW5nMRgwFgYDVQQDDA93b2xmU1NMIHJvb3Qg
Q0ExHzAdBgkqhkiG9w0BCQEWEGluZm9Ad29sZnNzbC5jb20wggEiMA0GCSqGSIb3
DQEBAQUAA4IBDwAwggEKAoIBAQCrLLQvHQYJ704phoR+zL+meXzwwMFkJYx1txAF
ykgnDA4yHLD+mYU5trmi9yf/bTyMFnMpIX+LplRxkK3MBbmfFccKP19p9ApfjHG1
LL9m4gOaMvTS7CqJS/k1iBQzR04uBXkB7WQ2drn4hc0BiKzFsrFZuM1a9AkJOJva
Ws/OeJkfST1B1gZ8UpnIl9GzgDqiTzbExZYwdzE4yHDM4WcGsysvk7Vpz4N+iFOb
D0YhTNYFNkSZYGhH5TIBEtQQc66aNJT6brhYT3tbipKXrf2XuXXKwtRFfRdrzS/z
Y3oOMLULqdmmfHRgncwJA0PxD5DTt/5sn9nNeEsVroxb+ZmBAgMBAAGjggE5MIIB
NTAMBgNVHRMEBTADAQH/MB0GA1UdDgQWBBRzsBykL4LLz0elONewBII6fnIVITCB
xAYDVR0jBIG8MIG5gBRzsBykL4LLz0elONewBII6fnIVIaGBnaSBmjCBlzELMAkG
A1UEBhMCVVMxEzARBgNVBAgMCldhc2hpbmd0b24xEDAOBgNVBAcMB1NlYXR0bGUx
EDAOBgNVBAoMB3dvbGZTU0wxFDASBgNVBAsMC0VuZ2luZWVyaW5nMRgwFgYDVQQD
DA93b2xmU1NMIHJvb3QgQ0ExHzAdBgkqhkiG9w0BCQEWEGluZm9Ad29sZnNzbC5j
b22CAWMwCwYDVR0PBAQDAgEGMDIGCCsGAQUFBwEBBCYwJDAiBggrBgEFBQcwAYYW
aHR0cDovLzEyNy4wLjAuMToyMjIyMDANBgkqhkiG9w0BAQsFAAOCAQEAL//WyqCb
SPKgETh+RtgNyzxu9s2VqBalIENTjgGHPdYMacXjDIk1zsyJvp5+iBX6Ufa7WngU
HZ76NdpieP4qz0wxnRIC9kP+JrhU9YhbdIyw5jSHZ/HKIPJQtPrRuM2HKA2kDMs/
4lLHjotgMmCL3NiV7xzj3MrJ94UcPSdjqbLGucLua0SRu7/p8RwKLiix6SHZCtPH
ohhBdlaxBpb28Mn89XoeasyOv48ioNKD1dZVBfdZPuqM9bnbt2shT4FBg+ASOOkd
6wo54SlnNvqQt7uwNKKnYTMBMTP5DQHFDnWdN2jKHQAfTnw2mz6PAjcAruEe0X5x
sT6LBRHN8dqs3A==
-----END CERTIFICATE-----
