Certificate:
    Data:
        Version: 3 (0x2)
        Serial Number: 100 (0x64)
    Signature Algorithm: sha256WithRSAEncryption
        Issuer: C = US, ST = Montana, L = Bozeman, O = Sawtooth, OU = Consulting, CN = www.wolfssl.com, emailAddress = info@wolfssl.com
        Validity
            Not Before: Jan 29 07:49:12 2021 GMT
            Not After : Oct 26 07:49:12 2023 GMT
        Subject: C = US, ST = Washington, L = Seattle, O = wolfSSL Inc., OU = Engineering, CN = chainC-ICA1-pathlen1, emailAddress = info@wolfssl.com
        Subject Public Key Info:
            Public Key Algorithm: rsaEncryption
                Public-Key: (2048 bit)
                Modulus:
                    00:f1:56:83:77:e0:2d:22:b0:6a:26:f6:58:71:3a:
                    04:0b:d7:4e:26:c7:16:a1:50:e3:a8:10:1b:c9:74:
                    3e:eb:6f:b1:10:e1:48:ca:18:5e:ff:af:b1:99:1e:
                    23:8c:a6:7b:a8:c6:e0:4f:0a:0e:34:6f:a1:ed:d2:
                    74:0c:4d:01:e9:64:85:cf:00:b4:f6:12:a4:6d:b2:
                    1d:05:98:15:33:a8:4f:f0:2b:27:c9:eb:e9:b6:b4:
                    70:5f:c9:cd:78:14:94:c8:27:81:9c:9a:fa:82:cf:
                    13:5d:8e:94:62:76:a8:b5:ab:4b:a0:ed:24:cf:83:
                    60:dd:8f:d6:4e:56:16:20:7c:5f:c4:35:85:96:63:
                    e0:b7:de:99:3b:00:4d:ee:21:3e:4f:fd:e1:7e:61:
                    ef:24:c7:64:16:63:fa:54:70:8a:54:b4:48:62:9d:
                    8f:7e:13:08:25:57:3f:56:2c:bb:88:a5:ce:82:aa:
                    d6:7b:31:9b:3a:37:f0:3f:dc:50:9d:b7:8c:af:c4:
                    81:44:b1:c6:c9:50:1d:b2:f0:0c:49:c8:c8:e5:cb:
                    06:cb:8d:f4:9e:af:0e:65:d1:72:39:2f:87:1b:b6:
                    27:71:fe:ef:c0:13:e0:48:2d:bb:27:e2:28:90:92:
                    20:f4:2e:f3:05:be:33:1c:cb:1f:ef:d6:d5:b7:b5:
                    6c:b9
                Exponent: 65537 (0x10001)
        X509v3 extensions:
            X509v3 Subject Key Identifier: 
                3D:1E:01:03:58:F7:7B:56:39:F7:55:31:D7:17:0B:CA:07:CD:1A:37
            X509v3 Authority Key Identifier: 
                keyid:27:8E:67:11:74:C3:26:1D:3F:ED:33:63:B3:A4:D8:1D:30:E5:E8:D5
                DirName:/C=US/ST=Montana/L=Bozeman/O=Sawtooth/OU=Consulting/CN=www.wolfssl.com/emailAddress=info@wolfssl.com
                serial:5E:BA:A4:F4:B1:F7:48:25:E3:5F:9B:DA:A1:13:ED:D5:2B:03:67:15

            X509v3 Basic Constraints: 
                CA:TRUE, pathlen:1
            X509v3 Key Usage: 
                Certificate Sign, CRL Sign
    Signature Algorithm: sha256WithRSAEncryption
         6b:81:a1:a6:db:21:b8:79:b5:e7:09:7d:a6:1d:ca:50:e6:81:
         3f:96:e0:b2:9c:c6:27:2b:c9:d2:4f:43:2c:e0:a3:ea:90:e2:
         67:77:17:0e:8e:dc:ed:b2:31:6e:c0:df:9a:b6:72:82:d8:0e:
         ba:14:95:53:23:a8:e9:3c:c9:44:8f:b1:33:8a:3e:c1:15:21:
         b6:2e:74:ed:81:0a:18:1d:78:39:b7:7c:fc:47:f6:5b:c0:53:
         7a:bf:b6:34:7c:44:56:19:d6:f2:7a:b4:b6:8b:23:0c:a8:e5:
         92:3c:37:8c:7f:bf:75:f5:c8:5a:11:09:ba:3f:6e:b6:7f:75:
         fa:3d:b3:3b:94:fe:14:18:25:a2:77:ac:f8:41:3c:90:fa:3b:
         22:68:b0:ba:16:aa:96:76:b8:82:03:d0:95:10:a7:05:d8:22:
         bc:84:99:2b:92:1b:48:bc:f2:b6:da:55:6e:c6:5e:5f:5a:e2:
         33:a0:ba:39:a1:19:aa:50:db:9e:c9:67:20:a7:34:ce:ed:f2:
         f9:4f:ce:a8:1d:de:b5:89:53:71:d6:24:bf:bb:1e:e8:71:45:
         17:dc:d9:0e:ab:d5:04:e6:59:94:1e:c8:59:1d:24:23:a2:34:
         44:cf:da:51:df:ac:25:2f:94:9e:c3:30:25:7a:1c:4e:a0:98:
         fa:32:27:66
-----BEGIN CERTIFICATE-----
MIIEzDCCA7SgAwIBAgIBZDANBgkqhkiG9w0BAQsFADCBlDELMAkGA1UEBhMCVVMx
EDAOBgNVBAgMB01vbnRhbmExEDAOBgNVBAcMB0JvemVtYW4xETAPBgNVBAoMCFNh
d3Rvb3RoMRMwEQYDVQQLDApDb25zdWx0aW5nMRgwFgYDVQQDDA93d3cud29sZnNz
bC5jb20xHzAdBgkqhkiG9w0BCQEWEGluZm9Ad29sZnNzbC5jb20wHhcNMjEwMTI5
MDc0OTEyWhcNMjMxMDI2MDc0OTEyWjCBoTELMAkGA1UEBhMCVVMxEzARBgNVBAgM
Cldhc2hpbmd0b24xEDAOBgNVBAcMB1NlYXR0bGUxFTATBgNVBAoMDHdvbGZTU0wg
SW5jLjEUMBIGA1UECwwLRW5naW5lZXJpbmcxHTAbBgNVBAMMFGNoYWluQy1JQ0Ex
LXBhdGhsZW4xMR8wHQYJKoZIhvcNAQkBFhBpbmZvQHdvbGZzc2wuY29tMIIBIjAN
BgkqhkiG9w0BAQEFAAOCAQ8AMIIBCgKCAQEA8VaDd+AtIrBqJvZYcToEC9dOJscW
oVDjqBAbyXQ+62+xEOFIyhhe/6+xmR4jjKZ7qMbgTwoONG+h7dJ0DE0B6WSFzwC0
9hKkbbIdBZgVM6hP8CsnyevptrRwX8nNeBSUyCeBnJr6gs8TXY6UYnaotatLoO0k
z4Ng3Y/WTlYWIHxfxDWFlmPgt96ZOwBN7iE+T/3hfmHvJMdkFmP6VHCKVLRIYp2P
fhMIJVc/Viy7iKXOgqrWezGbOjfwP9xQnbeMr8SBRLHGyVAdsvAMScjI5csGy430
nq8OZdFyOS+HG7Yncf7vwBPgSC27J+IokJIg9C7zBb4zHMsf79bVt7VsuQIDAQAB
o4IBGDCCARQwHQYDVR0OBBYEFD0eAQNY93tWOfdVMdcXC8oHzRo3MIHUBgNVHSME
gcwwgcmAFCeOZxF0wyYdP+0zY7Ok2B0w5ejVoYGapIGXMIGUMQswCQYDVQQGEwJV
UzEQMA4GA1UECAwHTW9udGFuYTEQMA4GA1UEBwwHQm96ZW1hbjERMA8GA1UECgwI
U2F3dG9vdGgxEzARBgNVBAsMCkNvbnN1bHRpbmcxGDAWBgNVBAMMD3d3dy53b2xm
c3NsLmNvbTEfMB0GCSqGSIb3DQEJARYQaW5mb0B3b2xmc3NsLmNvbYIUXrqk9LH3
SCXjX5vaoRPt1SsDZxUwDwYDVR0TBAgwBgEB/wIBATALBgNVHQ8EBAMCAQYwDQYJ
KoZIhvcNAQELBQADggEBAGuBoabbIbh5tecJfaYdylDmgT+W4LKcxicrydJPQyzg
o+qQ4md3Fw6O3O2yMW7A35q2coLYDroUlVMjqOk8yUSPsTOKPsEVIbYudO2BChgd
eDm3fPxH9lvAU3q/tjR8RFYZ1vJ6tLaLIwyo5ZI8N4x/v3X1yFoRCbo/brZ/dfo9
szuU/hQYJaJ3rPhBPJD6OyJosLoWqpZ2uIID0JUQpwXYIryEmSuSG0i88rbaVW7G
Xl9a4jOgujmhGapQ257JZyCnNM7t8vlPzqgd3rWJU3HWJL+7HuhxRRfc2Q6r1QTm
WZQeyFkdJCOiNETP2lHfrCUvlJ7DMCV6HE6gmPoyJ2Y=
-----END CERTIFICATE-----
