Certificate:
    Data:
        Version: 3 (0x2)
        Serial Number: 101 (0x65)
    Signature Algorithm: sha256WithRSAEncryption
        Issuer: C = US, ST = Washington, L = Seattle, O = wolfSSL Inc., OU = Engineering, CN = chainD-ICA1-pathlen127, emailAddress = info@wolfssl.com
        Validity
            Not Before: Jan 29 07:49:13 2021 GMT
            Not After : Oct 26 07:49:13 2023 GMT
        Subject: C = US, ST = Washington, L = Seattle, O = wolfSSL Inc., OU = Engineering, CN = chainD-entity, emailAddress = info@wolfssl.com
        Subject Public Key Info:
            Public Key Algorithm: rsaEncryption
                Public-Key: (2048 bit)
                Modulus:
                    00:c4:60:db:55:ae:da:ec:a2:bb:17:0a:29:fd:a6:
                    89:45:a6:17:a5:ce:93:6e:7b:ab:25:1f:41:e7:eb:
                    c7:9d:5f:5e:e1:8f:6a:45:7e:5f:8d:71:14:c1:e2:
                    53:ce:3e:5d:dd:a2:4d:ed:4e:6c:c1:49:24:bd:8d:
                    73:56:eb:ab:75:fd:65:31:c1:54:00:0c:d2:c3:f0:
                    c0:fa:11:90:e9:16:0e:c9:1b:6b:7c:62:12:08:7d:
                    ab:11:8a:31:bd:51:bc:db:2d:15:db:6f:04:8a:e0:
                    c9:7f:f6:70:81:c9:ba:61:a4:09:da:60:a0:b2:8e:
                    72:d1:56:5b:b5:b3:62:82:e6:34:7d:25:59:fe:82:
                    d6:19:54:27:29:d4:c0:81:f0:6c:2f:ea:d6:69:d6:
                    40:02:06:9b:89:9a:c8:78:f3:08:be:64:97:af:43:
                    e0:aa:b2:23:2a:e6:5d:d7:6c:c7:15:28:fb:83:ba:
                    21:c6:56:7a:88:31:55:ab:1e:ca:83:42:6d:f8:9a:
                    99:55:a3:03:cb:ac:15:84:a2:71:a8:3a:00:53:d2:
                    9d:90:13:6e:52:25:c0:b1:e4:97:0e:15:ad:eb:c0:
                    be:34:94:5f:99:45:00:53:87:c7:ef:f9:69:e9:73:
                    2a:7e:ff:37:ee:b9:9b:13:4b:67:b9:28:ea:ac:42:
                    e3:ab
                Exponent: 65537 (0x10001)
        X509v3 extensions:
            X509v3 Subject Key Identifier: 
                1F:0E:47:E3:34:98:B5:F4:5B:80:39:2D:EC:14:B9:FB:0D:BD:F4:64
            X509v3 Authority Key Identifier: 
                keyid:F6:FA:EA:B8:BE:7F:88:E3:18:80:5E:F4:A3:C8:03:22:9A:A4:84:BC
                DirName:/C=US/ST=Montana/L=Bozeman/O=Sawtooth/OU=Consulting/CN=www.wolfssl.com/emailAddress=info@wolfssl.com
                serial:64

            X509v3 Basic Constraints: 
                CA:FALSE
    Signature Algorithm: sha256WithRSAEncryption
         25:f2:74:77:45:3c:c4:07:07:b4:1e:46:a5:9a:ff:42:76:7c:
         95:be:df:e8:ad:50:13:68:59:18:ec:03:bf:f1:05:a4:15:a2:
         1b:d2:35:14:cb:aa:d3:87:32:15:ca:ea:a4:da:1b:bf:10:57:
         e0:e5:a0:58:3e:d8:af:c2:ab:16:98:61:6a:ed:d2:a2:bb:45:
         4a:11:d7:58:15:29:c7:98:17:47:d3:28:eb:53:d9:cf:e3:51:
         eb:7b:78:93:75:c6:9b:f2:f1:4a:40:53:70:f5:3f:36:5e:88:
         03:d1:da:8c:a3:be:a7:42:f0:15:f6:4e:85:91:66:e8:a3:3b:
         ad:fa:49:a8:9b:22:a7:00:a2:e1:16:9b:5b:d0:11:01:c6:fb:
         08:35:c6:90:eb:d0:c5:38:d5:33:e8:c3:3d:df:00:2e:c6:4d:
         d8:44:04:c7:7b:3e:23:ac:c9:d8:27:f5:c5:e4:b5:bc:3c:03:
         5f:72:52:2c:62:3c:dc:2d:3f:9f:f2:23:b3:79:91:99:6a:32:
         db:36:a0:55:00:00:85:12:23:b3:be:cb:d3:db:48:6f:44:7a:
         0f:a0:06:5f:5b:82:9a:34:20:06:be:55:07:72:69:6b:d6:82:
         72:bd:62:03:f5:5f:d4:7d:32:5d:ba:31:18:16:69:3c:12:38:
         b2:c5:af:ab
-----BEGIN CERTIFICATE-----
MIIErDCCA5SgAwIBAgIBZTANBgkqhkiG9w0BAQsFADCBozELMAkGA1UEBhMCVVMx
EzARBgNVBAgMCldhc2hpbmd0b24xEDAOBgNVBAcMB1NlYXR0bGUxFTATBgNVBAoM
DHdvbGZTU0wgSW5jLjEUMBIGA1UECwwLRW5naW5lZXJpbmcxHzAdBgNVBAMMFmNo
YWluRC1JQ0ExLXBhdGhsZW4xMjcxHzAdBgkqhkiG9w0BCQEWEGluZm9Ad29sZnNz
bC5jb20wHhcNMjEwMTI5MDc0OTEzWhcNMjMxMDI2MDc0OTEzWjCBmjELMAkGA1UE
BhMCVVMxEzARBgNVBAgMCldhc2hpbmd0b24xEDAOBgNVBAcMB1NlYXR0bGUxFTAT
BgNVBAoMDHdvbGZTU0wgSW5jLjEUMBIGA1UECwwLRW5naW5lZXJpbmcxFjAUBgNV
BAMMDWNoYWluRC1lbnRpdHkxHzAdBgkqhkiG9w0BCQEWEGluZm9Ad29sZnNzbC5j
b20wggEiMA0GCSqGSIb3DQEBAQUAA4IBDwAwggEKAoIBAQDEYNtVrtrsorsXCin9
polFphelzpNue6slH0Hn68edX17hj2pFfl+NcRTB4lPOPl3dok3tTmzBSSS9jXNW
66t1/WUxwVQADNLD8MD6EZDpFg7JG2t8YhIIfasRijG9UbzbLRXbbwSK4Ml/9nCB
ybphpAnaYKCyjnLRVlu1s2KC5jR9JVn+gtYZVCcp1MCB8Gwv6tZp1kACBpuJmsh4
8wi+ZJevQ+CqsiMq5l3XbMcVKPuDuiHGVnqIMVWrHsqDQm34mplVowPLrBWEonGo
OgBT0p2QE25SJcCx5JcOFa3rwL40lF+ZRQBTh8fv+Wnpcyp+/zfuuZsTS2e5KOqs
QuOrAgMBAAGjgfEwge4wHQYDVR0OBBYEFB8OR+M0mLX0W4A5LewUufsNvfRkMIHB
BgNVHSMEgbkwgbaAFPb66ri+f4jjGIBe9KPIAyKapIS8oYGapIGXMIGUMQswCQYD
VQQGEwJVUzEQMA4GA1UECAwHTW9udGFuYTEQMA4GA1UEBwwHQm96ZW1hbjERMA8G
A1UECgwIU2F3dG9vdGgxEzARBgNVBAsMCkNvbnN1bHRpbmcxGDAWBgNVBAMMD3d3
dy53b2xmc3NsLmNvbTEfMB0GCSqGSIb3DQEJARYQaW5mb0B3b2xmc3NsLmNvbYIB
ZDAJBgNVHRMEAjAAMA0GCSqGSIb3DQEBCwUAA4IBAQAl8nR3RTzEBwe0Hkalmv9C
dnyVvt/orVATaFkY7AO/8QWkFaIb0jUUy6rThzIVyuqk2hu/EFfg5aBYPtivwqsW
mGFq7dKiu0VKEddYFSnHmBdH0yjrU9nP41Hre3iTdcab8vFKQFNw9T82XogD0dqM
o76nQvAV9k6FkWboozut+kmomyKnAKLhFptb0BEBxvsINcaQ69DFONUz6MM93wAu
xk3YRATHez4jrMnYJ/XF5LW8PANfclIsYjzcLT+f8iOzeZGZajLbNqBVAACFEiOz
vsvT20hvRHoPoAZfW4KaNCAGvlUHcmlr1oJyvWID9V/UfTJdujEYFmk8Ejiyxa+r
-----END CERTIFICATE-----
Certificate:
    Data:
        Version: 3 (0x2)
        Serial Number: 100 (0x64)
    Signature Algorithm: sha256WithRSAEncryption
        Issuer: C = US, ST = Montana, L = Bozeman, O = Sawtooth, OU = Consulting, CN = www.wolfssl.com, emailAddress = info@wolfssl.com
        Validity
            Not Before: Jan 29 07:49:13 2021 GMT
            Not After : Oct 26 07:49:13 2023 GMT
        Subject: C = US, ST = Washington, L = Seattle, O = wolfSSL Inc., OU = Engineering, CN = chainD-ICA1-pathlen127, emailAddress = info@wolfssl.com
        Subject Public Key Info:
            Public Key Algorithm: rsaEncryption
                Public-Key: (2048 bit)
                Modulus:
                    00:d1:71:1c:d3:1f:a1:0e:a2:08:1d:78:f3:ce:59:
                    2b:4b:9a:84:2e:b3:04:23:d3:20:b9:e1:0a:d1:dc:
                    6b:1d:fd:95:eb:1d:ca:e1:8d:60:11:ec:04:01:fe:
                    bb:0f:f5:fd:2c:06:b1:f1:8e:bd:d0:0f:9c:17:2a:
                    92:aa:56:50:d7:f8:15:43:b4:db:5d:8f:23:e5:b1:
                    03:66:27:cc:63:b3:e3:a4:e3:61:2d:e4:6e:07:5a:
                    6f:5e:79:61:61:85:aa:a2:ba:9b:a4:c3:38:0d:47:
                    88:d6:60:0f:6c:de:bb:40:0d:75:37:00:03:57:92:
                    fa:d5:34:96:33:de:d1:ec:56:0b:f4:e5:21:b7:f6:
                    20:c2:9f:72:1c:24:ed:ee:db:a3:f9:93:d0:b9:83:
                    80:84:aa:97:00:68:74:ea:71:4a:dd:52:17:91:6f:
                    77:b7:30:55:eb:18:d8:df:4c:21:a0:1b:23:1e:d7:
                    99:b3:02:3d:93:51:69:21:2a:10:75:aa:f4:f3:13:
                    ad:e2:82:82:e9:0f:10:86:ca:34:fd:05:77:65:42:
                    c7:b5:5e:96:f8:f5:aa:85:4a:8a:d3:b9:c0:62:53:
                    31:4e:99:93:6c:80:b5:99:8e:60:ff:0d:b1:f9:37:
                    19:f9:3a:9a:76:74:11:a8:4f:82:16:57:c3:e3:55:
                    96:19
                Exponent: 65537 (0x10001)
        X509v3 extensions:
            X509v3 Subject Key Identifier: 
                F6:FA:EA:B8:BE:7F:88:E3:18:80:5E:F4:A3:C8:03:22:9A:A4:84:BC
            X509v3 Authority Key Identifier: 
                keyid:27:8E:67:11:74:C3:26:1D:3F:ED:33:63:B3:A4:D8:1D:30:E5:E8:D5
                DirName:/C=US/ST=Montana/L=Bozeman/O=Sawtooth/OU=Consulting/CN=www.wolfssl.com/emailAddress=info@wolfssl.com
                serial:5E:BA:A4:F4:B1:F7:48:25:E3:5F:9B:DA:A1:13:ED:D5:2B:03:67:15

            X509v3 Basic Constraints: 
                CA:TRUE, pathlen:127
            X509v3 Key Usage: 
                Certificate Sign, CRL Sign
    Signature Algorithm: sha256WithRSAEncryption
         1a:36:18:0b:e5:30:d7:8e:21:b6:09:a9:5f:8a:a8:27:aa:1f:
         99:91:b3:91:8d:75:45:00:54:84:16:56:43:d5:d8:92:50:1e:
         07:c9:d5:2d:5d:c0:02:05:38:a4:23:c0:ab:6e:d7:66:fa:b8:
         85:1f:2a:5e:ad:d2:4e:e0:ea:c3:d1:9a:d0:c7:c5:0e:77:24:
         1f:14:6a:22:4e:60:ef:99:80:80:0a:26:12:36:69:46:97:fa:
         09:47:e8:3c:6e:7b:e7:48:33:f7:49:e8:a7:ee:25:67:79:84:
         f8:08:8b:af:44:8e:66:e1:c2:cf:81:72:9e:6a:92:8e:11:f3:
         c7:3d:ce:9d:8c:92:8d:ce:23:ad:9e:44:26:12:8b:ad:34:4b:
         01:ea:b8:4f:78:78:46:f6:0c:57:94:6f:01:0f:d0:69:9c:b3:
         65:05:cf:d5:7d:d2:86:2f:03:59:f4:0a:69:d1:6f:fc:53:ae:
         f7:63:b9:0e:33:aa:2f:f4:81:49:fe:5a:2c:43:8d:90:47:6b:
         08:8a:6f:cb:fd:0a:e8:34:14:e5:0c:54:d9:1d:a3:47:e5:a5:
         a6:67:ae:cb:1b:d0:7e:38:90:2e:8f:fa:56:1a:45:38:67:30:
         10:d4:33:fc:75:e5:9b:f3:1a:1e:3c:85:06:40:8b:f8:59:2d:
         ef:6c:d7:69
-----BEGIN CERTIFICATE-----
MIIEzjCCA7agAwIBAgIBZDANBgkqhkiG9w0BAQsFADCBlDELMAkGA1UEBhMCVVMx
EDAOBgNVBAgMB01vbnRhbmExEDAOBgNVBAcMB0JvemVtYW4xETAPBgNVBAoMCFNh
d3Rvb3RoMRMwEQYDVQQLDApDb25zdWx0aW5nMRgwFgYDVQQDDA93d3cud29sZnNz
bC5jb20xHzAdBgkqhkiG9w0BCQEWEGluZm9Ad29sZnNzbC5jb20wHhcNMjEwMTI5
MDc0OTEzWhcNMjMxMDI2MDc0OTEzWjCBozELMAkGA1UEBhMCVVMxEzARBgNVBAgM
Cldhc2hpbmd0b24xEDAOBgNVBAcMB1NlYXR0bGUxFTATBgNVBAoMDHdvbGZTU0wg
SW5jLjEUMBIGA1UECwwLRW5naW5lZXJpbmcxHzAdBgNVBAMMFmNoYWluRC1JQ0Ex
LXBhdGhsZW4xMjcxHzAdBgkqhkiG9w0BCQEWEGluZm9Ad29sZnNzbC5jb20wggEi
MA0GCSqGSIb3DQEBAQUAA4IBDwAwggEKAoIBAQDRcRzTH6EOoggdePPOWStLmoQu
swQj0yC54QrR3Gsd/ZXrHcrhjWAR7AQB/rsP9f0sBrHxjr3QD5wXKpKqVlDX+BVD
tNtdjyPlsQNmJ8xjs+Ok42Et5G4HWm9eeWFhhaqiupukwzgNR4jWYA9s3rtADXU3
AANXkvrVNJYz3tHsVgv05SG39iDCn3IcJO3u26P5k9C5g4CEqpcAaHTqcUrdUheR
b3e3MFXrGNjfTCGgGyMe15mzAj2TUWkhKhB1qvTzE63igoLpDxCGyjT9BXdlQse1
Xpb49aqFSorTucBiUzFOmZNsgLWZjmD/DbH5Nxn5Opp2dBGoT4IWV8PjVZYZAgMB
AAGjggEYMIIBFDAdBgNVHQ4EFgQU9vrquL5/iOMYgF70o8gDIpqkhLwwgdQGA1Ud
IwSBzDCByYAUJ45nEXTDJh0/7TNjs6TYHTDl6NWhgZqkgZcwgZQxCzAJBgNVBAYT
AlVTMRAwDgYDVQQIDAdNb250YW5hMRAwDgYDVQQHDAdCb3plbWFuMREwDwYDVQQK
DAhTYXd0b290aDETMBEGA1UECwwKQ29uc3VsdGluZzEYMBYGA1UEAwwPd3d3Lndv
bGZzc2wuY29tMR8wHQYJKoZIhvcNAQkBFhBpbmZvQHdvbGZzc2wuY29tghReuqT0
sfdIJeNfm9qhE+3VKwNnFTAPBgNVHRMECDAGAQH/AgF/MAsGA1UdDwQEAwIBBjAN
BgkqhkiG9w0BAQsFAAOCAQEAGjYYC+Uw144htgmpX4qoJ6ofmZGzkY11RQBUhBZW
Q9XYklAeB8nVLV3AAgU4pCPAq27XZvq4hR8qXq3STuDqw9Ga0MfFDnckHxRqIk5g
75mAgAomEjZpRpf6CUfoPG5750gz90nop+4lZ3mE+AiLr0SOZuHCz4FynmqSjhHz
xz3OnYySjc4jrZ5EJhKLrTRLAeq4T3h4RvYMV5RvAQ/QaZyzZQXP1X3Shi8DWfQK
adFv/FOu92O5DjOqL/SBSf5aLEONkEdrCIpvy/0K6DQU5QxU2R2jR+WlpmeuyxvQ
fjiQLo/6VhpFOGcwENQz/HXlm/MaHjyFBkCL+Fkt72zXaQ==
-----END CERTIFICATE-----
