Certificate:
    Data:
        Version: 3 (0x2)
        Serial Number: 101 (0x65)
    Signature Algorithm: sha256WithRSAEncryption
        Issuer: C = US, ST = Washington, L = Seattle, O = wolfSSL Inc., OU = Engineering, CN = chainI-ICA1-no_pathlen, emailAddress = info@wolfssl.com
        Validity
            Not Before: Jan 29 07:49:18 2021 GMT
            Not After : Oct 26 07:49:18 2023 GMT
        Subject: C = US, ST = Washington, L = Seattle, O = wolfSSL Inc., OU = Engineering, CN = chainI-entity, emailAddress = info@wolfssl.com
        Subject Public Key Info:
            Public Key Algorithm: rsaEncryption
                Public-Key: (2048 bit)
                Modulus:
                    00:ae:d8:a0:cd:91:2c:de:4a:8a:dc:f4:40:cb:48:
                    ff:20:c4:d7:93:76:ea:9f:8e:bd:39:5b:c5:f6:0c:
                    8b:5f:3f:3d:cc:ac:63:94:da:2c:d3:a7:b9:61:bd:
                    88:63:83:5f:ef:58:38:a7:8f:e7:2d:fd:77:53:c8:
                    10:43:16:6e:f7:d6:6e:75:cd:2b:32:7b:59:02:b7:
                    b8:8e:5d:98:bc:a6:74:2c:ec:35:4e:c5:0a:3a:38:
                    15:61:d6:1c:8d:be:b7:86:a8:5c:e8:c6:0f:0d:ff:
                    40:da:72:1f:09:e3:77:de:cf:e7:9e:d8:56:e7:c9:
                    d5:39:e5:e2:0a:94:21:a7:52:d4:b5:17:73:e0:17:
                    18:a1:d6:78:c6:f2:4b:81:d0:71:3a:46:0b:ac:39:
                    c6:76:be:06:c4:99:f6:52:0b:e1:c4:73:f9:70:2e:
                    d1:52:16:c1:61:69:a5:8a:b4:69:23:53:11:65:e2:
                    fc:37:d0:5d:2a:6e:de:82:aa:97:ca:00:04:4e:17:
                    c8:0f:47:63:12:e2:b8:22:6d:e4:86:1e:62:48:46:
                    77:fc:d9:90:0a:e5:da:f9:33:f3:0b:e9:03:0e:96:
                    17:51:9d:41:c6:9a:9c:69:1e:93:18:12:fd:d3:9c:
                    d6:2c:20:a0:5b:81:85:61:11:70:2d:5d:e8:80:92:
                    36:cd
                Exponent: 65537 (0x10001)
        X509v3 extensions:
            X509v3 Subject Key Identifier: 
                94:ED:FE:67:A9:7E:7D:42:C5:C8:18:80:39:EC:95:4D:17:5E:88:0A
            X509v3 Authority Key Identifier: 
                keyid:14:49:A9:3A:96:13:BE:38:8C:7F:69:02:B8:A8:67:64:51:36:B1:9B
                DirName:/C=US/ST=Washington/L=Seattle/O=wolfSSL Inc./OU=Engineering/CN=chainI-ICA2-no_pathlen/emailAddress=info@wolfssl.com
                serial:64

            X509v3 Basic Constraints: 
                CA:FALSE
    Signature Algorithm: sha256WithRSAEncryption
         23:1c:3d:8d:85:1e:6b:51:f0:6c:97:f5:9c:4e:30:40:12:54:
         b3:8f:3c:80:3d:81:39:58:b7:28:21:c1:fd:68:79:19:b3:e6:
         90:6f:62:89:20:08:8b:ca:09:60:34:43:79:07:62:2e:69:b3:
         c0:fc:a5:fc:a7:a1:f4:c1:3e:4b:1f:49:4f:a9:e7:5f:83:63:
         19:b8:0f:ba:97:69:a7:11:5c:b2:b2:2e:cb:b1:94:9e:ac:94:
         a7:07:93:b4:4c:69:b4:a6:2e:68:fb:c4:18:62:b4:a7:fd:4f:
         7e:00:a1:e9:26:42:fa:df:84:44:53:c6:71:03:f9:eb:df:e9:
         3b:36:f2:46:9b:ae:22:4d:20:6e:02:89:cd:46:ee:5f:f8:12:
         f7:6d:97:c3:62:ee:be:90:ef:e3:2f:89:54:89:a2:56:c2:a7:
         f6:28:80:31:a3:9a:49:59:9d:10:f0:45:bc:8c:ea:b2:bc:d2:
         89:1b:e3:c6:12:d2:1e:3e:87:54:67:4a:b9:af:55:60:1d:bb:
         c3:d8:ba:86:51:dd:57:f8:df:9e:6c:4e:5d:4b:c6:31:64:8e:
         9e:50:48:df:ec:1f:ac:01:46:cd:db:95:64:78:5a:32:46:cd:
         ae:3f:39:9f:19:f4:9a:16:f1:1e:f4:ff:99:e1:9c:11:63:1e:
         0d:d5:f1:cc
-----BEGIN CERTIFICATE-----
MIIEvDCCA6SgAwIBAgIBZTANBgkqhkiG9w0BAQsFADCBozELMAkGA1UEBhMCVVMx
EzARBgNVBAgMCldhc2hpbmd0b24xEDAOBgNVBAcMB1NlYXR0bGUxFTATBgNVBAoM
DHdvbGZTU0wgSW5jLjEUMBIGA1UECwwLRW5naW5lZXJpbmcxHzAdBgNVBAMMFmNo
YWluSS1JQ0ExLW5vX3BhdGhsZW4xHzAdBgkqhkiG9w0BCQEWEGluZm9Ad29sZnNz
bC5jb20wHhcNMjEwMTI5MDc0OTE4WhcNMjMxMDI2MDc0OTE4WjCBmjELMAkGA1UE
BhMCVVMxEzARBgNVBAgMCldhc2hpbmd0b24xEDAOBgNVBAcMB1NlYXR0bGUxFTAT
BgNVBAoMDHdvbGZTU0wgSW5jLjEUMBIGA1UECwwLRW5naW5lZXJpbmcxFjAUBgNV
BAMMDWNoYWluSS1lbnRpdHkxHzAdBgkqhkiG9w0BCQEWEGluZm9Ad29sZnNzbC5j
b20wggEiMA0GCSqGSIb3DQEBAQUAA4IBDwAwggEKAoIBAQCu2KDNkSzeSorc9EDL
SP8gxNeTduqfjr05W8X2DItfPz3MrGOU2izTp7lhvYhjg1/vWDinj+ct/XdTyBBD
Fm731m51zSsye1kCt7iOXZi8pnQs7DVOxQo6OBVh1hyNvreGqFzoxg8N/0Dach8J
43fez+ee2FbnydU55eIKlCGnUtS1F3PgFxih1njG8kuB0HE6RgusOcZ2vgbEmfZS
C+HEc/lwLtFSFsFhaaWKtGkjUxFl4vw30F0qbt6CqpfKAAROF8gPR2MS4rgibeSG
HmJIRnf82ZAK5dr5M/ML6QMOlhdRnUHGmpxpHpMYEv3TnNYsIKBbgYVhEXAtXeiA
kjbNAgMBAAGjggEAMIH9MB0GA1UdDgQWBBSU7f5nqX59QsXIGIA57JVNF16ICjCB
0AYDVR0jBIHIMIHFgBQUSak6lhO+OIx/aQK4qGdkUTaxm6GBqaSBpjCBozELMAkG
A1UEBhMCVVMxEzARBgNVBAgMCldhc2hpbmd0b24xEDAOBgNVBAcMB1NlYXR0bGUx
FTATBgNVBAoMDHdvbGZTU0wgSW5jLjEUMBIGA1UECwwLRW5naW5lZXJpbmcxHzAd
BgNVBAMMFmNoYWluSS1JQ0EyLW5vX3BhdGhsZW4xHzAdBgkqhkiG9w0BCQEWEGlu
Zm9Ad29sZnNzbC5jb22CAWQwCQYDVR0TBAIwADANBgkqhkiG9w0BAQsFAAOCAQEA
Ixw9jYUea1HwbJf1nE4wQBJUs488gD2BOVi3KCHB/Wh5GbPmkG9iiSAIi8oJYDRD
eQdiLmmzwPyl/Keh9ME+Sx9JT6nnX4NjGbgPupdppxFcsrIuy7GUnqyUpweTtExp
tKYuaPvEGGK0p/1PfgCh6SZC+t+ERFPGcQP569/pOzbyRpuuIk0gbgKJzUbuX/gS
922Xw2LuvpDv4y+JVImiVsKn9iiAMaOaSVmdEPBFvIzqsrzSiRvjxhLSHj6HVGdK
ua9VYB27w9i6hlHdV/jfnmxOXUvGMWSOnlBI3+wfrAFGzduVZHhaMkbNrj85nxn0
mhbxHvT/meGcEWMeDdXxzA==
-----END CERTIFICATE-----
Certificate:
    Data:
        Version: 3 (0x2)
        Serial Number: 100 (0x64)
    Signature Algorithm: sha256WithRSAEncryption
        Issuer: C = US, ST = Washington, L = Seattle, O = wolfSSL Inc., OU = Engineering, CN = chainI-ICA2-no_pathlen, emailAddress = info@wolfssl.com
        Validity
            Not Before: Jan 29 07:49:18 2021 GMT
            Not After : Oct 26 07:49:18 2023 GMT
        Subject: C = US, ST = Washington, L = Seattle, O = wolfSSL Inc., OU = Engineering, CN = chainI-ICA1-no_pathlen, emailAddress = info@wolfssl.com
        Subject Public Key Info:
            Public Key Algorithm: rsaEncryption
                Public-Key: (2048 bit)
                Modulus:
                    00:ba:ef:d8:c9:a5:f9:74:45:49:f8:90:c2:f5:6d:
                    ba:99:b0:ef:cf:8d:61:d4:55:37:aa:2a:9a:f2:54:
                    53:6a:ec:39:04:cb:62:53:8a:4d:1d:5b:d6:03:b8:
                    bd:de:0c:97:bb:c6:83:9c:2f:0b:93:eb:d7:21:0b:
                    3e:6e:22:e7:f5:44:81:e8:45:70:a4:01:53:05:07:
                    91:ff:9e:d9:fc:66:7d:20:30:4e:56:18:d4:58:68:
                    20:9d:97:76:52:80:4b:3c:64:5b:63:29:8d:af:c8:
                    94:2a:8a:a7:aa:96:eb:dc:3b:b0:63:c5:96:e6:c6:
                    e3:a6:59:06:15:0a:9a:07:c7:0b:9e:e0:ef:d5:db:
                    8c:fd:56:06:a5:e8:01:5a:a1:8d:e4:3e:89:2d:5e:
                    d7:c5:6c:4c:0e:4b:68:6b:cd:e6:a8:61:37:30:ce:
                    b1:73:35:8a:b3:98:b5:46:29:2e:2c:d8:76:7a:48:
                    2f:bc:08:2f:7c:e7:c9:7e:ae:09:25:e3:31:50:8b:
                    f6:f4:91:4b:ab:1a:3f:57:eb:9b:b8:26:f0:f3:c9:
                    66:96:cb:75:db:4f:fe:d3:b3:7b:cb:29:3e:7f:c4:
                    1c:6d:a5:d0:eb:06:47:2e:4e:03:7b:77:55:8e:5e:
                    28:ee:70:5f:bc:d3:11:20:99:43:6e:5c:78:2f:c4:
                    4b:57
                Exponent: 65537 (0x10001)
        X509v3 extensions:
            X509v3 Subject Key Identifier: 
                14:49:A9:3A:96:13:BE:38:8C:7F:69:02:B8:A8:67:64:51:36:B1:9B
            X509v3 Authority Key Identifier: 
                keyid:59:59:5F:6A:2A:07:1B:3A:78:AE:E7:17:11:B6:4C:C0:F1:E6:A1:D6
                DirName:/C=US/ST=Washington/L=Seattle/O=wolfSSL Inc./OU=Engineering/CN=chainI-ICA3-pathlen2/emailAddress=info@wolfssl.com
                serial:64

            X509v3 Basic Constraints: 
                CA:TRUE
            X509v3 Key Usage: 
                Certificate Sign, CRL Sign
    Signature Algorithm: sha256WithRSAEncryption
         1b:2b:98:dc:f6:0a:42:be:e1:19:37:71:cd:b1:b5:36:ba:b9:
         5c:73:c0:22:4a:e3:fb:0d:a0:fd:a3:4e:c7:14:5a:7d:0d:66:
         cc:9c:3f:31:ee:7c:da:8a:97:5c:7c:ff:87:34:63:7d:0e:3d:
         f7:11:4d:df:a4:c0:97:77:c7:08:f9:90:07:da:a4:a9:36:46:
         72:c4:58:6d:e4:ad:15:bd:d1:23:f3:d7:50:fa:ab:86:49:92:
         0e:e7:b1:65:83:64:b1:42:7c:90:5d:2f:8b:e3:86:e9:25:5f:
         5f:88:24:a3:5c:34:b1:10:2d:e2:4d:04:56:3f:3e:43:f0:42:
         85:8a:a4:52:02:00:0d:b2:a9:76:76:1e:16:f1:f3:46:c6:e3:
         61:3c:23:c8:38:86:d4:32:2f:b4:3b:ca:5d:35:a3:c8:bb:ba:
         e2:79:57:1b:ed:a1:78:39:8f:e5:f4:66:8a:b9:fb:8d:1f:10:
         61:cc:03:8c:6b:de:bd:dc:29:88:0e:cc:2e:aa:71:65:4f:49:
         d9:48:90:52:1a:5b:9f:9a:39:b5:74:68:e9:9a:3c:77:13:26:
         d8:a7:2b:65:d4:78:d9:45:70:23:13:f1:12:e8:b2:ae:39:48:
         9e:ad:e9:a9:c8:65:5b:88:b9:e9:19:f4:60:9f:25:af:9a:ac:
         9c:a6:98:13
-----BEGIN CERTIFICATE-----
MIIE1DCCA7ygAwIBAgIBZDANBgkqhkiG9w0BAQsFADCBozELMAkGA1UEBhMCVVMx
EzARBgNVBAgMCldhc2hpbmd0b24xEDAOBgNVBAcMB1NlYXR0bGUxFTATBgNVBAoM
DHdvbGZTU0wgSW5jLjEUMBIGA1UECwwLRW5naW5lZXJpbmcxHzAdBgNVBAMMFmNo
YWluSS1JQ0EyLW5vX3BhdGhsZW4xHzAdBgkqhkiG9w0BCQEWEGluZm9Ad29sZnNz
bC5jb20wHhcNMjEwMTI5MDc0OTE4WhcNMjMxMDI2MDc0OTE4WjCBozELMAkGA1UE
BhMCVVMxEzARBgNVBAgMCldhc2hpbmd0b24xEDAOBgNVBAcMB1NlYXR0bGUxFTAT
BgNVBAoMDHdvbGZTU0wgSW5jLjEUMBIGA1UECwwLRW5naW5lZXJpbmcxHzAdBgNV
BAMMFmNoYWluSS1JQ0ExLW5vX3BhdGhsZW4xHzAdBgkqhkiG9w0BCQEWEGluZm9A
d29sZnNzbC5jb20wggEiMA0GCSqGSIb3DQEBAQUAA4IBDwAwggEKAoIBAQC679jJ
pfl0RUn4kML1bbqZsO/PjWHUVTeqKpryVFNq7DkEy2JTik0dW9YDuL3eDJe7xoOc
LwuT69chCz5uIuf1RIHoRXCkAVMFB5H/ntn8Zn0gME5WGNRYaCCdl3ZSgEs8ZFtj
KY2vyJQqiqeqluvcO7BjxZbmxuOmWQYVCpoHxwue4O/V24z9Vgal6AFaoY3kPokt
XtfFbEwOS2hrzeaoYTcwzrFzNYqzmLVGKS4s2HZ6SC+8CC9858l+rgkl4zFQi/b0
kUurGj9X65u4JvDzyWaWy3XbT/7Ts3vLKT5/xBxtpdDrBkcuTgN7d1WOXijucF+8
0xEgmUNuXHgvxEtXAgMBAAGjggEPMIIBCzAdBgNVHQ4EFgQUFEmpOpYTvjiMf2kC
uKhnZFE2sZswgc4GA1UdIwSBxjCBw4AUWVlfaioHGzp4rucXEbZMwPHmodahgaek
gaQwgaExCzAJBgNVBAYTAlVTMRMwEQYDVQQIDApXYXNoaW5ndG9uMRAwDgYDVQQH
DAdTZWF0dGxlMRUwEwYDVQQKDAx3b2xmU1NMIEluYy4xFDASBgNVBAsMC0VuZ2lu
ZWVyaW5nMR0wGwYDVQQDDBRjaGFpbkktSUNBMy1wYXRobGVuMjEfMB0GCSqGSIb3
DQEJARYQaW5mb0B3b2xmc3NsLmNvbYIBZDAMBgNVHRMEBTADAQH/MAsGA1UdDwQE
AwIBBjANBgkqhkiG9w0BAQsFAAOCAQEAGyuY3PYKQr7hGTdxzbG1Nrq5XHPAIkrj
+w2g/aNOxxRafQ1mzJw/Me582oqXXHz/hzRjfQ499xFN36TAl3fHCPmQB9qkqTZG
csRYbeStFb3RI/PXUPqrhkmSDuexZYNksUJ8kF0vi+OG6SVfX4gko1w0sRAt4k0E
Vj8+Q/BChYqkUgIADbKpdnYeFvHzRsbjYTwjyDiG1DIvtDvKXTWjyLu64nlXG+2h
eDmP5fRmirn7jR8QYcwDjGvevdwpiA7MLqpxZU9J2UiQUhpbn5o5tXRo6Zo8dxMm
2KcrZdR42UVwIxPxEuiyrjlInq3pqchlW4i56Rn0YJ8lr5qsnKaYEw==
-----END CERTIFICATE-----
Certificate:
    Data:
        Version: 3 (0x2)
        Serial Number: 100 (0x64)
    Signature Algorithm: sha256WithRSAEncryption
        Issuer: C = US, ST = Washington, L = Seattle, O = wolfSSL Inc., OU = Engineering, CN = chainI-ICA3-pathlen2, emailAddress = info@wolfssl.com
        Validity
            Not Before: Jan 29 07:49:18 2021 GMT
            Not After : Oct 26 07:49:18 2023 GMT
        Subject: C = US, ST = Washington, L = Seattle, O = wolfSSL Inc., OU = Engineering, CN = chainI-ICA2-no_pathlen, emailAddress = info@wolfssl.com
        Subject Public Key Info:
            Public Key Algorithm: rsaEncryption
                Public-Key: (2048 bit)
                Modulus:
                    00:f2:6d:25:85:8c:27:d3:4d:d3:c3:85:b0:6e:4a:
                    40:4e:2b:4a:49:33:cd:83:27:5b:a1:e2:fc:45:0c:
                    92:08:07:64:d2:c5:e2:bf:9a:b9:ca:b1:8a:d1:c6:
                    f2:0a:bf:c6:de:2e:98:81:b1:c2:f9:bd:d2:b1:02:
                    d1:aa:c1:ae:88:5c:b3:84:ab:90:a1:e6:67:16:67:
                    6f:55:0f:08:c6:ce:b8:95:07:3a:2a:8f:cb:d2:34:
                    19:25:92:9f:61:8c:65:d0:05:e6:69:8d:f3:76:61:
                    46:b6:7a:9c:29:0b:34:55:44:70:81:65:64:ea:71:
                    a1:83:27:f1:8e:f3:53:bf:16:9f:d1:e0:ad:1b:74:
                    c3:e5:b8:bc:a8:81:5e:a3:20:2c:ea:0c:25:3f:e4:
                    4d:b6:2f:e5:65:d3:6d:08:60:80:45:0c:6b:2c:b4:
                    32:e7:bf:4a:c8:79:d2:fa:a2:24:41:33:a0:cf:81:
                    11:27:19:94:f7:c1:52:e7:f4:be:1c:a1:36:28:af:
                    ce:51:4b:7f:97:7b:e8:ae:6d:bb:c4:4d:5f:7f:14:
                    1e:00:7e:1c:ef:32:fb:75:17:6e:fa:0f:6c:9a:86:
                    0e:22:3f:46:40:a9:bf:fb:72:c4:6b:e0:c5:88:65:
                    83:54:cc:2b:f5:20:88:0a:3f:6c:91:c2:21:06:3c:
                    7d:47
                Exponent: 65537 (0x10001)
        X509v3 extensions:
            X509v3 Subject Key Identifier: 
                59:59:5F:6A:2A:07:1B:3A:78:AE:E7:17:11:B6:4C:C0:F1:E6:A1:D6
            X509v3 Authority Key Identifier: 
                keyid:17:17:C7:65:E5:60:CD:07:01:6C:EB:10:A2:02:15:8D:D3:C5:49:82
                DirName:/C=US/ST=Montana/L=Bozeman/O=Sawtooth/OU=Consulting/CN=www.wolfssl.com/emailAddress=info@wolfssl.com
                serial:64

            X509v3 Basic Constraints: 
                CA:TRUE
            X509v3 Key Usage: 
                Certificate Sign, CRL Sign
    Signature Algorithm: sha256WithRSAEncryption
         41:86:26:cc:8d:aa:f7:13:42:ff:97:88:21:f8:2b:f7:44:e8:
         94:2e:f3:c3:38:d6:38:bd:06:c0:67:42:c7:17:fc:62:96:7e:
         fa:7d:e9:64:8a:e9:23:be:41:f4:a1:59:3f:6f:78:2b:85:8d:
         b9:0d:23:ce:65:63:11:71:2e:8d:a8:c8:d9:3e:a5:c4:33:c2:
         16:ca:5e:07:77:5c:a1:06:75:21:23:19:39:b7:aa:cb:32:a7:
         8c:96:cc:af:33:02:52:ea:ce:10:31:9c:2f:f9:b5:29:dd:4e:
         35:8e:da:ea:ed:6f:27:e0:f7:de:b9:87:dc:aa:78:50:ad:48:
         8e:32:ab:3b:2e:f4:15:6a:bd:23:6b:f1:72:eb:b3:a4:94:f4:
         66:26:9f:d6:d0:9f:42:1d:ae:75:7b:32:4b:2c:6a:eb:5a:ae:
         13:31:c6:f4:6a:7f:c3:d6:fb:50:3f:36:57:d3:a3:00:18:4b:
         4a:11:ae:e2:6f:1e:b9:bc:bc:90:9c:f9:c2:b2:38:c5:0a:e8:
         1e:1d:18:d5:5c:48:39:69:c2:76:f3:5f:ae:c2:58:eb:67:d4:
         0c:7f:c5:bc:9c:e3:b0:35:ce:d6:87:8a:13:be:27:36:cc:4b:
         3d:48:94:fe:8c:2c:98:24:c4:9f:eb:18:23:5d:f3:e1:cf:c6:
         99:75:06:e4
-----BEGIN CERTIFICATE-----
MIIExDCCA6ygAwIBAgIBZDANBgkqhkiG9w0BAQsFADCBoTELMAkGA1UEBhMCVVMx
EzARBgNVBAgMCldhc2hpbmd0b24xEDAOBgNVBAcMB1NlYXR0bGUxFTATBgNVBAoM
DHdvbGZTU0wgSW5jLjEUMBIGA1UECwwLRW5naW5lZXJpbmcxHTAbBgNVBAMMFGNo
YWluSS1JQ0EzLXBhdGhsZW4yMR8wHQYJKoZIhvcNAQkBFhBpbmZvQHdvbGZzc2wu
Y29tMB4XDTIxMDEyOTA3NDkxOFoXDTIzMTAyNjA3NDkxOFowgaMxCzAJBgNVBAYT
AlVTMRMwEQYDVQQIDApXYXNoaW5ndG9uMRAwDgYDVQQHDAdTZWF0dGxlMRUwEwYD
VQQKDAx3b2xmU1NMIEluYy4xFDASBgNVBAsMC0VuZ2luZWVyaW5nMR8wHQYDVQQD
DBZjaGFpbkktSUNBMi1ub19wYXRobGVuMR8wHQYJKoZIhvcNAQkBFhBpbmZvQHdv
bGZzc2wuY29tMIIBIjANBgkqhkiG9w0BAQEFAAOCAQ8AMIIBCgKCAQEA8m0lhYwn
003Tw4WwbkpATitKSTPNgydboeL8RQySCAdk0sXiv5q5yrGK0cbyCr/G3i6YgbHC
+b3SsQLRqsGuiFyzhKuQoeZnFmdvVQ8Ixs64lQc6Ko/L0jQZJZKfYYxl0AXmaY3z
dmFGtnqcKQs0VURwgWVk6nGhgyfxjvNTvxaf0eCtG3TD5bi8qIFeoyAs6gwlP+RN
ti/lZdNtCGCARQxrLLQy579KyHnS+qIkQTOgz4ERJxmU98FS5/S+HKE2KK/OUUt/
l3vorm27xE1ffxQeAH4c7zL7dRdu+g9smoYOIj9GQKm/+3LEa+DFiGWDVMwr9SCI
Cj9skcIhBjx9RwIDAQABo4IBATCB/jAdBgNVHQ4EFgQUWVlfaioHGzp4rucXEbZM
wPHmodYwgcEGA1UdIwSBuTCBtoAUFxfHZeVgzQcBbOsQogIVjdPFSYKhgZqkgZcw
gZQxCzAJBgNVBAYTAlVTMRAwDgYDVQQIDAdNb250YW5hMRAwDgYDVQQHDAdCb3pl
bWFuMREwDwYDVQQKDAhTYXd0b290aDETMBEGA1UECwwKQ29uc3VsdGluZzEYMBYG
A1UEAwwPd3d3LndvbGZzc2wuY29tMR8wHQYJKoZIhvcNAQkBFhBpbmZvQHdvbGZz
c2wuY29tggFkMAwGA1UdEwQFMAMBAf8wCwYDVR0PBAQDAgEGMA0GCSqGSIb3DQEB
CwUAA4IBAQBBhibMjar3E0L/l4gh+Cv3ROiULvPDONY4vQbAZ0LHF/xiln76felk
iukjvkH0oVk/b3grhY25DSPOZWMRcS6NqMjZPqXEM8IWyl4Hd1yhBnUhIxk5t6rL
MqeMlsyvMwJS6s4QMZwv+bUp3U41jtrq7W8n4PfeuYfcqnhQrUiOMqs7LvQVar0j
a/Fy67OklPRmJp/W0J9CHa51ezJLLGrrWq4TMcb0an/D1vtQPzZX06MAGEtKEa7i
bx65vLyQnPnCsjjFCugeHRjVXEg5acJ281+uwljrZ9QMf8W8nOOwNc7Wh4oTvic2
zEs9SJT+jCyYJMSf6xgjXfPhz8aZdQbk
-----END CERTIFICATE-----
Certificate:
    Data:
        Version: 3 (0x2)
        Serial Number: 100 (0x64)
    Signature Algorithm: sha256WithRSAEncryption
        Issuer: C = US, ST = Montana, L = Bozeman, O = Sawtooth, OU = Consulting, CN = www.wolfssl.com, emailAddress = info@wolfssl.com
        Validity
            Not Before: Jan 29 07:49:17 2021 GMT
            Not After : Oct 26 07:49:17 2023 GMT
        Subject: C = US, ST = Washington, L = Seattle, O = wolfSSL Inc., OU = Engineering, CN = chainI-ICA3-pathlen2, emailAddress = info@wolfssl.com
        Subject Public Key Info:
            Public Key Algorithm: rsaEncryption
                Public-Key: (2048 bit)
                Modulus:
                    00:a3:7d:1e:88:00:fc:a9:ce:e5:fc:50:9c:fd:b9:
                    bf:bc:3c:05:63:e7:bf:8c:1b:90:20:ae:f6:76:ad:
                    43:2e:8a:d2:27:b2:9c:c2:8d:e7:7d:d0:b5:02:6f:
                    40:bc:84:49:34:ed:13:c9:45:f1:df:87:8e:56:4f:
                    2c:ce:15:0b:a9:ce:a0:45:81:c6:97:f5:6d:d0:94:
                    cf:a8:10:ac:49:05:7b:fc:fb:8d:5c:e7:77:b7:39:
                    93:23:ae:bf:ec:e1:1d:f8:38:02:65:79:b1:14:1e:
                    d5:55:d4:fc:77:b7:45:38:a6:95:4f:f8:ba:41:59:
                    59:ad:5b:d6:15:f1:40:b8:ef:1e:aa:7c:c8:30:7e:
                    b1:68:e7:f7:45:5c:37:b7:a5:76:ea:4b:eb:61:6c:
                    d4:43:42:a3:60:2f:62:9a:80:18:c1:83:3b:f6:8a:
                    11:f6:db:41:59:41:d5:9e:98:5d:6b:8e:f3:cc:2b:
                    1f:ee:2c:2f:c9:af:50:aa:4f:46:fa:62:4b:5f:61:
                    40:e9:22:21:5a:1c:fd:85:97:93:01:95:05:3e:47:
                    df:f3:a7:67:ce:da:5d:2e:e6:6e:0a:67:55:c8:e7:
                    84:c3:7d:28:b3:09:f4:09:38:f2:8e:ba:06:4b:45:
                    60:5a:b9:5b:23:72:37:59:26:c2:a2:ce:f6:26:e6:
                    2c:cf
                Exponent: 65537 (0x10001)
        X509v3 extensions:
            X509v3 Subject Key Identifier: 
                17:17:C7:65:E5:60:CD:07:01:6C:EB:10:A2:02:15:8D:D3:C5:49:82
            X509v3 Authority Key Identifier: 
                keyid:27:8E:67:11:74:C3:26:1D:3F:ED:33:63:B3:A4:D8:1D:30:E5:E8:D5
                DirName:/C=US/ST=Montana/L=Bozeman/O=Sawtooth/OU=Consulting/CN=www.wolfssl.com/emailAddress=info@wolfssl.com
                serial:5E:BA:A4:F4:B1:F7:48:25:E3:5F:9B:DA:A1:13:ED:D5:2B:03:67:15

            X509v3 Basic Constraints: 
                CA:TRUE, pathlen:2
            X509v3 Key Usage: 
                Certificate Sign, CRL Sign
    Signature Algorithm: sha256WithRSAEncryption
         5e:79:a8:4f:51:44:32:c1:eb:d1:6a:24:87:ea:55:9a:08:00:
         f4:fc:57:46:ef:fc:a6:d7:fd:ac:66:b3:d3:da:be:4b:53:ff:
         86:d0:9c:a5:b5:4c:bc:f2:fc:ae:3c:05:9d:7f:c0:4c:d5:1c:
         e3:da:7f:ea:4c:91:85:8f:98:6b:ae:dc:61:2e:e7:46:f1:1f:
         d9:f2:78:19:c7:99:80:64:c7:60:16:1a:b0:cc:0d:4b:eb:a8:
         fd:6c:69:fa:64:59:8b:06:35:2b:60:f2:33:13:e0:a4:d8:8b:
         c8:af:bb:e2:17:ee:24:23:50:3f:5b:00:4f:e2:62:5e:bb:36:
         63:53:9e:90:3b:63:38:03:f8:6a:4e:3c:7a:f7:b1:43:88:8e:
         b9:7c:b8:db:29:58:c9:36:cb:f4:29:72:d1:42:f2:4b:93:c4:
         ea:99:3a:d9:d4:70:52:bf:9d:05:e6:99:c6:27:91:1c:bb:6a:
         21:20:f7:c1:4b:c1:32:0c:e2:eb:52:65:84:2d:3d:d5:70:07:
         43:75:e9:63:57:95:83:ab:77:b7:6a:6a:62:21:4f:62:e1:5a:
         87:71:84:47:7b:75:fd:22:61:ca:42:ea:41:86:38:ba:a1:7c:
         ac:b0:6a:15:70:c4:7f:01:f0:91:f4:e7:1b:5f:a2:7d:4c:cd:
         7f:89:c3:ef
-----BEGIN CERTIFICATE-----
MIIEzDCCA7SgAwIBAgIBZDANBgkqhkiG9w0BAQsFADCBlDELMAkGA1UEBhMCVVMx
EDAOBgNVBAgMB01vbnRhbmExEDAOBgNVBAcMB0JvemVtYW4xETAPBgNVBAoMCFNh
d3Rvb3RoMRMwEQYDVQQLDApDb25zdWx0aW5nMRgwFgYDVQQDDA93d3cud29sZnNz
bC5jb20xHzAdBgkqhkiG9w0BCQEWEGluZm9Ad29sZnNzbC5jb20wHhcNMjEwMTI5
MDc0OTE3WhcNMjMxMDI2MDc0OTE3WjCBoTELMAkGA1UEBhMCVVMxEzARBgNVBAgM
Cldhc2hpbmd0b24xEDAOBgNVBAcMB1NlYXR0bGUxFTATBgNVBAoMDHdvbGZTU0wg
SW5jLjEUMBIGA1UECwwLRW5naW5lZXJpbmcxHTAbBgNVBAMMFGNoYWluSS1JQ0Ez
LXBhdGhsZW4yMR8wHQYJKoZIhvcNAQkBFhBpbmZvQHdvbGZzc2wuY29tMIIBIjAN
BgkqhkiG9w0BAQEFAAOCAQ8AMIIBCgKCAQEAo30eiAD8qc7l/FCc/bm/vDwFY+e/
jBuQIK72dq1DLorSJ7Kcwo3nfdC1Am9AvIRJNO0TyUXx34eOVk8szhULqc6gRYHG
l/Vt0JTPqBCsSQV7/PuNXOd3tzmTI66/7OEd+DgCZXmxFB7VVdT8d7dFOKaVT/i6
QVlZrVvWFfFAuO8eqnzIMH6xaOf3RVw3t6V26kvrYWzUQ0KjYC9imoAYwYM79ooR
9ttBWUHVnphda47zzCsf7iwvya9Qqk9G+mJLX2FA6SIhWhz9hZeTAZUFPkff86dn
ztpdLuZuCmdVyOeEw30oswn0CTjyjroGS0VgWrlbI3I3WSbCos72JuYszwIDAQAB
o4IBGDCCARQwHQYDVR0OBBYEFBcXx2XlYM0HAWzrEKICFY3TxUmCMIHUBgNVHSME
gcwwgcmAFCeOZxF0wyYdP+0zY7Ok2B0w5ejVoYGapIGXMIGUMQswCQYDVQQGEwJV
UzEQMA4GA1UECAwHTW9udGFuYTEQMA4GA1UEBwwHQm96ZW1hbjERMA8GA1UECgwI
U2F3dG9vdGgxEzARBgNVBAsMCkNvbnN1bHRpbmcxGDAWBgNVBAMMD3d3dy53b2xm
c3NsLmNvbTEfMB0GCSqGSIb3DQEJARYQaW5mb0B3b2xmc3NsLmNvbYIUXrqk9LH3
SCXjX5vaoRPt1SsDZxUwDwYDVR0TBAgwBgEB/wIBAjALBgNVHQ8EBAMCAQYwDQYJ
KoZIhvcNAQELBQADggEBAF55qE9RRDLB69FqJIfqVZoIAPT8V0bv/KbX/axms9Pa
vktT/4bQnKW1TLzy/K48BZ1/wEzVHOPaf+pMkYWPmGuu3GEu50bxH9nyeBnHmYBk
x2AWGrDMDUvrqP1safpkWYsGNStg8jMT4KTYi8ivu+IX7iQjUD9bAE/iYl67NmNT
npA7YzgD+GpOPHr3sUOIjrl8uNspWMk2y/QpctFC8kuTxOqZOtnUcFK/nQXmmcYn
kRy7aiEg98FLwTIM4utSZYQtPdVwB0N16WNXlYOrd7dqamIhT2LhWodxhEd7df0i
YcpC6kGGOLqhfKywahVwxH8B8JH05xtfon1MzX+Jw+8=
-----END CERTIFICATE-----
