Certificate:
    Data:
        Version: 3 (0x2)
        Serial Number: 100 (0x64)
    Signature Algorithm: sha256WithRSAEncryption
        Issuer: C = US, ST = Montana, L = Bozeman, O = Sawtooth, OU = Consulting, CN = www.wolfssl.com, emailAddress = info@wolfssl.com
        Validity
            Not Before: Jan 29 07:49:14 2021 GMT
            Not After : Oct 26 07:49:14 2023 GMT
        Subject: C = US, ST = Washington, L = Seattle, O = wolfSSL Inc., OU = Engineering, CN = chainF-ICA2-pathlen0, emailAddress = info@wolfssl.com
        Subject Public Key Info:
            Public Key Algorithm: rsaEncryption
                Public-Key: (2048 bit)
                Modulus:
                    00:ab:b4:a9:97:68:96:b9:91:c5:cf:89:90:e1:c6:
                    79:85:a0:a6:f0:a5:a0:0f:12:9b:b2:de:ad:6e:a0:
                    28:25:25:43:63:05:1d:70:42:fd:aa:2e:7b:a1:40:
                    0f:3a:ca:80:1f:cc:93:cd:03:22:54:eb:ed:e1:dc:
                    68:d4:12:f7:2b:3d:2a:3b:82:f4:d5:46:c8:31:c0:
                    3b:43:cc:36:bf:77:fb:91:59:e4:ea:22:09:0f:0e:
                    ff:33:c9:6f:09:42:60:01:7c:0a:89:aa:10:26:75:
                    d9:e3:ed:b8:17:ba:e6:c2:6a:ca:b2:a6:7b:52:30:
                    c0:5b:c9:55:0b:7e:51:df:f4:17:a1:a2:39:61:99:
                    1d:98:69:76:37:12:62:d9:12:c6:65:2f:77:81:9d:
                    36:51:1d:0f:a7:2c:78:bc:23:8a:82:79:57:50:94:
                    e6:23:f1:4a:80:08:46:60:63:66:36:6c:d4:f2:57:
                    b6:5c:6d:43:df:bf:30:45:ec:ee:0c:6d:b6:f2:29:
                    24:60:cb:1a:3d:b0:bf:d9:23:42:0b:a3:57:c6:c7:
                    c8:bd:51:ff:44:8d:55:36:ee:1e:90:f1:f6:69:f9:
                    4f:80:93:83:26:94:2a:c0:2b:e5:bc:20:57:db:8d:
                    92:1a:ad:de:28:a6:59:90:b8:69:8a:84:d3:e7:ab:
                    cc:23
                Exponent: 65537 (0x10001)
        X509v3 extensions:
            X509v3 Subject Key Identifier: 
                17:24:F1:B3:CA:D9:54:65:D7:F8:06:75:9C:60:C7:D8:85:A4:37:D7
            X509v3 Authority Key Identifier: 
                keyid:27:8E:67:11:74:C3:26:1D:3F:ED:33:63:B3:A4:D8:1D:30:E5:E8:D5
                DirName:/C=US/ST=Montana/L=Bozeman/O=Sawtooth/OU=Consulting/CN=www.wolfssl.com/emailAddress=info@wolfssl.com
                serial:5E:BA:A4:F4:B1:F7:48:25:E3:5F:9B:DA:A1:13:ED:D5:2B:03:67:15

            X509v3 Basic Constraints: 
                CA:TRUE, pathlen:0
            X509v3 Key Usage: 
                Certificate Sign, CRL Sign
    Signature Algorithm: sha256WithRSAEncryption
         60:24:6a:8f:71:2b:e4:d9:96:91:74:2b:af:97:64:e2:d5:86:
         1f:57:a9:de:22:c5:12:be:5a:72:69:31:b1:fa:f2:31:1e:25:
         c9:87:b7:ac:4b:98:10:24:ff:5e:90:5a:fe:76:3b:97:cf:d1:
         15:92:ab:f5:43:bd:61:cd:79:25:e2:e6:09:cb:29:3f:e7:e0:
         98:cb:6c:d9:f2:79:fb:52:20:22:32:e1:25:86:84:47:a4:a5:
         80:ec:0c:e4:db:ba:33:e6:c0:3d:9b:67:78:68:52:3a:27:69:
         fb:80:63:e0:12:d6:fc:b6:76:4d:be:a5:44:c5:35:46:a1:69:
         05:b6:f8:43:d8:8a:67:6d:32:b1:a2:35:10:23:34:c9:de:21:
         72:06:21:d3:c9:54:5d:5d:c3:fc:16:29:49:c9:03:2a:9e:6c:
         85:3a:a5:f1:bb:15:a6:66:01:90:ef:b5:5a:25:65:c1:60:f1:
         5d:54:9a:68:6b:c4:88:84:8b:a3:90:b8:2a:20:73:eb:53:76:
         c4:87:d5:78:58:79:24:38:9b:11:06:46:ca:54:03:b4:ab:a2:
         34:22:66:15:5b:5a:c2:d7:37:ca:0a:35:0b:ad:ac:54:0d:ed:
         82:53:35:27:7a:5d:fe:fd:fc:43:33:f7:f5:17:cd:b5:a0:2d:
         7d:10:cf:b1
-----BEGIN CERTIFICATE-----
MIIEzDCCA7SgAwIBAgIBZDANBgkqhkiG9w0BAQsFADCBlDELMAkGA1UEBhMCVVMx
EDAOBgNVBAgMB01vbnRhbmExEDAOBgNVBAcMB0JvemVtYW4xETAPBgNVBAoMCFNh
d3Rvb3RoMRMwEQYDVQQLDApDb25zdWx0aW5nMRgwFgYDVQQDDA93d3cud29sZnNz
bC5jb20xHzAdBgkqhkiG9w0BCQEWEGluZm9Ad29sZnNzbC5jb20wHhcNMjEwMTI5
MDc0OTE0WhcNMjMxMDI2MDc0OTE0WjCBoTELMAkGA1UEBhMCVVMxEzARBgNVBAgM
Cldhc2hpbmd0b24xEDAOBgNVBAcMB1NlYXR0bGUxFTATBgNVBAoMDHdvbGZTU0wg
SW5jLjEUMBIGA1UECwwLRW5naW5lZXJpbmcxHTAbBgNVBAMMFGNoYWluRi1JQ0Ey
LXBhdGhsZW4wMR8wHQYJKoZIhvcNAQkBFhBpbmZvQHdvbGZzc2wuY29tMIIBIjAN
BgkqhkiG9w0BAQEFAAOCAQ8AMIIBCgKCAQEAq7Spl2iWuZHFz4mQ4cZ5haCm8KWg
DxKbst6tbqAoJSVDYwUdcEL9qi57oUAPOsqAH8yTzQMiVOvt4dxo1BL3Kz0qO4L0
1UbIMcA7Q8w2v3f7kVnk6iIJDw7/M8lvCUJgAXwKiaoQJnXZ4+24F7rmwmrKsqZ7
UjDAW8lVC35R3/QXoaI5YZkdmGl2NxJi2RLGZS93gZ02UR0Ppyx4vCOKgnlXUJTm
I/FKgAhGYGNmNmzU8le2XG1D378wRezuDG228ikkYMsaPbC/2SNCC6NXxsfIvVH/
RI1VNu4ekPH2aflPgJODJpQqwCvlvCBX242SGq3eKKZZkLhpioTT56vMIwIDAQAB
o4IBGDCCARQwHQYDVR0OBBYEFBck8bPK2VRl1/gGdZxgx9iFpDfXMIHUBgNVHSME
gcwwgcmAFCeOZxF0wyYdP+0zY7Ok2B0w5ejVoYGapIGXMIGUMQswCQYDVQQGEwJV
UzEQMA4GA1UECAwHTW9udGFuYTEQMA4GA1UEBwwHQm96ZW1hbjERMA8GA1UECgwI
U2F3dG9vdGgxEzARBgNVBAsMCkNvbnN1bHRpbmcxGDAWBgNVBAMMD3d3dy53b2xm
c3NsLmNvbTEfMB0GCSqGSIb3DQEJARYQaW5mb0B3b2xmc3NsLmNvbYIUXrqk9LH3
SCXjX5vaoRPt1SsDZxUwDwYDVR0TBAgwBgEB/wIBADALBgNVHQ8EBAMCAQYwDQYJ
KoZIhvcNAQELBQADggEBAGAkao9xK+TZlpF0K6+XZOLVhh9Xqd4ixRK+WnJpMbH6
8jEeJcmHt6xLmBAk/16QWv52O5fP0RWSq/VDvWHNeSXi5gnLKT/n4JjLbNnyeftS
ICIy4SWGhEekpYDsDOTbujPmwD2bZ3hoUjonafuAY+AS1vy2dk2+pUTFNUahaQW2
+EPYimdtMrGiNRAjNMneIXIGIdPJVF1dw/wWKUnJAyqebIU6pfG7FaZmAZDvtVol
ZcFg8V1UmmhrxIiEi6OQuCogc+tTdsSH1XhYeSQ4mxEGRspUA7SrojQiZhVbWsLX
N8oKNQutrFQN7YJTNSd6Xf79/EMz9/UXzbWgLX0Qz7E=
-----END CERTIFICATE-----
