Certificate:
    Data:
        Version: 3 (0x2)
        Serial Number: 101 (0x65)
    Signature Algorithm: sha256WithRSAEncryption
        Issuer: C = US, ST = Washington, L = Seattle, O = wolfSSL Inc., OU = Engineering, CN = chainF-ICA1-pathlen1, emailAddress = info@wolfssl.com
        Validity
            Not Before: Jan 29 07:49:14 2021 GMT
            Not After : Oct 26 07:49:14 2023 GMT
        Subject: C = US, ST = Washington, L = Seattle, O = wolfSSL Inc., OU = Engineering, CN = chainF-entity, emailAddress = info@wolfssl.com
        Subject Public Key Info:
            Public Key Algorithm: rsaEncryption
                Public-Key: (2048 bit)
                Modulus:
                    00:b6:0f:9c:82:b0:17:03:a3:84:7c:61:4d:e0:6f:
                    86:09:02:57:37:b0:12:8c:5e:63:d7:d8:a8:bd:af:
                    a2:7d:45:6a:79:84:5b:2a:89:93:a7:42:99:49:ee:
                    f4:d2:cf:be:be:00:ab:4d:c8:4d:8d:31:2e:fb:ad:
                    3f:d1:60:0c:d7:6c:7a:4b:9d:82:b3:1e:af:ad:99:
                    a4:a7:86:db:a7:bd:fd:80:40:5d:55:73:8c:e2:dc:
                    b1:da:4d:df:b4:98:07:d8:88:d3:cb:65:36:db:03:
                    08:b1:a4:25:5e:6e:23:85:21:78:52:70:7e:8a:5b:
                    70:af:32:de:c8:ca:bd:7a:5d:69:d8:bf:b9:ad:6b:
                    31:da:18:e3:97:20:75:4d:60:eb:01:03:54:43:05:
                    d3:d6:94:42:c3:24:32:9a:10:d6:b1:f9:93:50:56:
                    0f:6c:4c:8b:66:83:3a:e0:d7:5e:9c:29:12:f1:2a:
                    4c:0e:48:7b:2d:19:46:ef:f3:4d:30:01:8c:6f:a0:
                    d9:3c:4f:f2:26:b4:e2:17:8f:a4:73:e7:b5:3c:ca:
                    c1:42:e6:f3:5f:32:69:84:13:fc:32:44:4f:91:2e:
                    9c:22:ac:1a:f9:66:44:f3:58:56:7e:2e:ae:67:b7:
                    9c:22:cc:46:b4:16:62:24:07:81:1f:be:9e:1a:8c:
                    71:07
                Exponent: 65537 (0x10001)
        X509v3 extensions:
            X509v3 Subject Key Identifier: 
                A2:22:F8:96:64:04:55:32:92:56:7B:CD:82:54:08:92:47:C3:8A:6F
            X509v3 Authority Key Identifier: 
                keyid:67:7D:2B:99:E4:26:51:9B:E9:3C:66:E8:17:D7:AF:54:52:1A:12:47
                DirName:/C=US/ST=Washington/L=Seattle/O=wolfSSL Inc./OU=Engineering/CN=chainF-ICA2-pathlen0/emailAddress=info@wolfssl.com
                serial:64

            X509v3 Basic Constraints: 
                CA:FALSE
    Signature Algorithm: sha256WithRSAEncryption
         00:37:c0:5f:b6:33:52:d4:b3:f3:d5:f0:0f:96:b8:19:61:58:
         8a:bd:a7:c7:08:e8:e7:49:5d:b1:3e:59:81:08:7c:21:43:70:
         cf:76:b7:91:0a:4a:10:bd:62:02:79:8a:db:8f:2e:98:00:1f:
         3c:92:3e:d6:56:2c:a5:1c:85:7c:bc:65:99:37:e5:a8:a6:81:
         f9:76:e4:0f:15:d4:8a:cb:12:02:2d:85:5e:76:03:45:df:fd:
         37:60:0d:33:95:c9:81:e7:7d:69:8f:f0:d8:b0:0f:33:49:25:
         33:10:71:81:d3:9c:2c:a7:b1:a3:4b:08:05:a5:e5:10:1b:b6:
         76:b2:06:9b:d9:31:42:17:19:83:c3:be:7f:6a:66:e5:34:a8:
         04:6c:4f:89:91:6d:74:e1:a6:1a:07:ac:2d:1d:85:5f:e1:bd:
         06:6e:b6:b2:4b:01:10:17:59:11:83:0a:02:e5:06:1f:11:92:
         9e:37:2d:f7:e0:93:d0:49:cc:a8:57:96:bf:fb:89:58:66:69:
         69:ae:f1:f0:4f:3a:88:fb:cf:b4:25:5c:e2:cf:e2:30:df:b1:
         e7:24:e8:d7:4e:73:08:46:03:f0:8c:b3:25:07:4c:95:fc:61:
         40:3a:5f:2a:57:f8:06:f9:d0:c5:71:b3:e1:13:18:45:f7:ce:
         a7:64:3d:39
-----BEGIN CERTIFICATE-----
MIIEtzCCA5+gAwIBAgIBZTANBgkqhkiG9w0BAQsFADCBoTELMAkGA1UEBhMCVVMx
EzARBgNVBAgMCldhc2hpbmd0b24xEDAOBgNVBAcMB1NlYXR0bGUxFTATBgNVBAoM
DHdvbGZTU0wgSW5jLjEUMBIGA1UECwwLRW5naW5lZXJpbmcxHTAbBgNVBAMMFGNo
YWluRi1JQ0ExLXBhdGhsZW4xMR8wHQYJKoZIhvcNAQkBFhBpbmZvQHdvbGZzc2wu
Y29tMB4XDTIxMDEyOTA3NDkxNFoXDTIzMTAyNjA3NDkxNFowgZoxCzAJBgNVBAYT
AlVTMRMwEQYDVQQIDApXYXNoaW5ndG9uMRAwDgYDVQQHDAdTZWF0dGxlMRUwEwYD
VQQKDAx3b2xmU1NMIEluYy4xFDASBgNVBAsMC0VuZ2luZWVyaW5nMRYwFAYDVQQD
DA1jaGFpbkYtZW50aXR5MR8wHQYJKoZIhvcNAQkBFhBpbmZvQHdvbGZzc2wuY29t
MIIBIjANBgkqhkiG9w0BAQEFAAOCAQ8AMIIBCgKCAQEAtg+cgrAXA6OEfGFN4G+G
CQJXN7ASjF5j19iova+ifUVqeYRbKomTp0KZSe700s++vgCrTchNjTEu+60/0WAM
12x6S52Csx6vrZmkp4bbp739gEBdVXOM4tyx2k3ftJgH2IjTy2U22wMIsaQlXm4j
hSF4UnB+iltwrzLeyMq9el1p2L+5rWsx2hjjlyB1TWDrAQNUQwXT1pRCwyQymhDW
sfmTUFYPbEyLZoM64NdenCkS8SpMDkh7LRlG7/NNMAGMb6DZPE/yJrTiF4+kc+e1
PMrBQubzXzJphBP8MkRPkS6cIqwa+WZE81hWfi6uZ7ecIsxGtBZiJAeBH76eGoxx
BwIDAQABo4H+MIH7MB0GA1UdDgQWBBSiIviWZARVMpJWe82CVAiSR8OKbzCBzgYD
VR0jBIHGMIHDgBRnfSuZ5CZRm+k8ZugX169UUhoSR6GBp6SBpDCBoTELMAkGA1UE
BhMCVVMxEzARBgNVBAgMCldhc2hpbmd0b24xEDAOBgNVBAcMB1NlYXR0bGUxFTAT
BgNVBAoMDHdvbGZTU0wgSW5jLjEUMBIGA1UECwwLRW5naW5lZXJpbmcxHTAbBgNV
BAMMFGNoYWluRi1JQ0EyLXBhdGhsZW4wMR8wHQYJKoZIhvcNAQkBFhBpbmZvQHdv
bGZzc2wuY29tggFkMAkGA1UdEwQCMAAwDQYJKoZIhvcNAQELBQADggEBAAA3wF+2
M1LUs/PV8A+WuBlhWIq9p8cI6OdJXbE+WYEIfCFDcM92t5EKShC9YgJ5ituPLpgA
HzySPtZWLKUchXy8ZZk35aimgfl25A8V1IrLEgIthV52A0Xf/TdgDTOVyYHnfWmP
8NiwDzNJJTMQcYHTnCynsaNLCAWl5RAbtnayBpvZMUIXGYPDvn9qZuU0qARsT4mR
bXThphoHrC0dhV/hvQZutrJLARAXWRGDCgLlBh8Rkp43Lffgk9BJzKhXlr/7iVhm
aWmu8fBPOoj7z7QlXOLP4jDfseck6NdOcwhGA/CMsyUHTJX8YUA6XypX+Ab50MVx
s+ETGEX3zqdkPTk=
-----END CERTIFICATE-----
Certificate:
    Data:
        Version: 3 (0x2)
        Serial Number: 100 (0x64)
    Signature Algorithm: sha256WithRSAEncryption
        Issuer: C = US, ST = Washington, L = Seattle, O = wolfSSL Inc., OU = Engineering, CN = chainF-ICA2-pathlen0, emailAddress = info@wolfssl.com
        Validity
            Not Before: Jan 29 07:49:14 2021 GMT
            Not After : Oct 26 07:49:14 2023 GMT
        Subject: C = US, ST = Washington, L = Seattle, O = wolfSSL Inc., OU = Engineering, CN = chainF-ICA1-pathlen1, emailAddress = info@wolfssl.com
        Subject Public Key Info:
            Public Key Algorithm: rsaEncryption
                Public-Key: (2048 bit)
                Modulus:
                    00:b6:81:e9:69:b9:9a:4b:f0:e8:f5:5c:9b:29:05:
                    40:a1:2e:0b:df:56:e3:18:3f:4f:23:d6:c7:6d:c3:
                    62:ce:00:de:e7:58:eb:ef:d1:98:7f:26:e6:a7:f7:
                    e1:68:1a:e9:5f:e3:53:3b:28:36:73:5a:54:37:9b:
                    eb:73:77:33:44:72:ff:4d:96:c2:5f:9f:8f:cf:08:
                    90:93:7d:7e:32:19:f5:e0:e3:24:26:14:c7:5a:5a:
                    72:26:4b:52:c7:60:39:ad:df:7d:9c:61:9a:5e:75:
                    d2:7a:48:a0:21:d8:ec:04:9f:47:f0:d4:6d:4c:ad:
                    38:91:44:f3:b8:b5:c3:73:c3:42:4b:e8:f1:5c:30:
                    49:8a:ef:24:92:45:98:21:f2:6d:a9:15:7d:b3:78:
                    f8:bd:7e:9d:9b:8b:de:f2:7d:5e:6d:92:29:ab:3c:
                    b1:71:ef:31:8a:f5:76:67:54:7c:c5:7a:1a:46:33:
                    d3:9f:bb:82:88:a7:50:23:29:f9:39:cb:bc:ba:af:
                    0b:87:e3:97:89:d8:09:b8:9e:54:e1:53:ce:c5:47:
                    db:62:fe:2d:77:c0:25:bf:9a:99:45:ef:7f:15:d3:
                    c2:28:a8:70:26:78:88:53:39:74:21:1b:fc:3e:0c:
                    62:e2:b0:15:38:ec:59:89:b9:18:ca:0f:9c:1c:35:
                    e1:13
                Exponent: 65537 (0x10001)
        X509v3 extensions:
            X509v3 Subject Key Identifier: 
                67:7D:2B:99:E4:26:51:9B:E9:3C:66:E8:17:D7:AF:54:52:1A:12:47
            X509v3 Authority Key Identifier: 
                keyid:17:24:F1:B3:CA:D9:54:65:D7:F8:06:75:9C:60:C7:D8:85:A4:37:D7
                DirName:/C=US/ST=Montana/L=Bozeman/O=Sawtooth/OU=Consulting/CN=www.wolfssl.com/emailAddress=info@wolfssl.com
                serial:64

            X509v3 Basic Constraints: 
                CA:TRUE, pathlen:1
            X509v3 Key Usage: 
                Certificate Sign, CRL Sign
    Signature Algorithm: sha256WithRSAEncryption
         6d:02:82:ea:4f:58:6c:c7:ee:a3:dc:48:d1:c7:4b:f7:ea:85:
         fe:de:58:0d:6c:a2:fe:ba:fc:c3:1c:eb:21:49:a8:5b:e7:d5:
         87:85:a5:f1:28:05:db:5d:0b:9a:a7:18:a2:ba:b0:55:00:93:
         4e:3a:07:d4:b1:fc:24:e5:f8:7c:71:c9:a6:3e:d7:34:89:28:
         62:a3:f5:c9:2e:c6:7f:94:49:41:3a:94:6d:4c:91:70:49:cb:
         62:a7:06:22:25:95:40:f1:a9:61:e8:7e:a8:a7:b7:3d:1d:1f:
         73:d7:53:15:86:a9:b4:3b:54:08:d4:d7:70:f3:d0:52:b0:84:
         d2:15:e0:34:ff:01:f0:ff:66:bd:71:0f:a1:a7:31:1f:01:61:
         b6:c8:89:e1:88:d2:b5:16:3e:92:a6:21:f4:f6:22:90:bc:9b:
         3c:f9:59:8a:46:e6:44:72:87:09:ee:e7:1f:55:dc:83:41:32:
         7d:2f:9e:58:8e:54:f8:dd:dd:2e:99:59:8c:43:64:09:60:86:
         75:73:19:0e:f7:dc:09:de:d8:7e:96:33:45:a8:f1:56:c6:59:
         e4:33:aa:df:a2:f1:dc:9c:d4:ed:18:bd:3f:29:3d:0c:59:35:
         9c:6d:e4:8f:68:9d:7d:40:1f:3b:52:a4:40:86:e8:ad:4f:86:
         6e:f1:bf:4a
-----BEGIN CERTIFICATE-----
MIIExjCCA66gAwIBAgIBZDANBgkqhkiG9w0BAQsFADCBoTELMAkGA1UEBhMCVVMx
EzARBgNVBAgMCldhc2hpbmd0b24xEDAOBgNVBAcMB1NlYXR0bGUxFTATBgNVBAoM
DHdvbGZTU0wgSW5jLjEUMBIGA1UECwwLRW5naW5lZXJpbmcxHTAbBgNVBAMMFGNo
YWluRi1JQ0EyLXBhdGhsZW4wMR8wHQYJKoZIhvcNAQkBFhBpbmZvQHdvbGZzc2wu
Y29tMB4XDTIxMDEyOTA3NDkxNFoXDTIzMTAyNjA3NDkxNFowgaExCzAJBgNVBAYT
AlVTMRMwEQYDVQQIDApXYXNoaW5ndG9uMRAwDgYDVQQHDAdTZWF0dGxlMRUwEwYD
VQQKDAx3b2xmU1NMIEluYy4xFDASBgNVBAsMC0VuZ2luZWVyaW5nMR0wGwYDVQQD
DBRjaGFpbkYtSUNBMS1wYXRobGVuMTEfMB0GCSqGSIb3DQEJARYQaW5mb0B3b2xm
c3NsLmNvbTCCASIwDQYJKoZIhvcNAQEBBQADggEPADCCAQoCggEBALaB6Wm5mkvw
6PVcmykFQKEuC99W4xg/TyPWx23DYs4A3udY6+/RmH8m5qf34Wga6V/jUzsoNnNa
VDeb63N3M0Ry/02Wwl+fj88IkJN9fjIZ9eDjJCYUx1paciZLUsdgOa3ffZxhml51
0npIoCHY7ASfR/DUbUytOJFE87i1w3PDQkvo8VwwSYrvJJJFmCHybakVfbN4+L1+
nZuL3vJ9Xm2SKas8sXHvMYr1dmdUfMV6GkYz05+7goinUCMp+TnLvLqvC4fjl4nY
CbieVOFTzsVH22L+LXfAJb+amUXvfxXTwiiocCZ4iFM5dCEb/D4MYuKwFTjsWYm5
GMoPnBw14RMCAwEAAaOCAQUwggEBMB0GA1UdDgQWBBRnfSuZ5CZRm+k8ZugX169U
UhoSRzCBwQYDVR0jBIG5MIG2gBQXJPGzytlUZdf4BnWcYMfYhaQ316GBmqSBlzCB
lDELMAkGA1UEBhMCVVMxEDAOBgNVBAgMB01vbnRhbmExEDAOBgNVBAcMB0JvemVt
YW4xETAPBgNVBAoMCFNhd3Rvb3RoMRMwEQYDVQQLDApDb25zdWx0aW5nMRgwFgYD
VQQDDA93d3cud29sZnNzbC5jb20xHzAdBgkqhkiG9w0BCQEWEGluZm9Ad29sZnNz
bC5jb22CAWQwDwYDVR0TBAgwBgEB/wIBATALBgNVHQ8EBAMCAQYwDQYJKoZIhvcN
AQELBQADggEBAG0CgupPWGzH7qPcSNHHS/fqhf7eWA1sov66/MMc6yFJqFvn1YeF
pfEoBdtdC5qnGKK6sFUAk046B9Sx/CTl+HxxyaY+1zSJKGKj9ckuxn+USUE6lG1M
kXBJy2KnBiIllUDxqWHofqintz0dH3PXUxWGqbQ7VAjU13Dz0FKwhNIV4DT/AfD/
Zr1xD6GnMR8BYbbIieGI0rUWPpKmIfT2IpC8mzz5WYpG5kRyhwnu5x9V3INBMn0v
nliOVPjd3S6ZWYxDZAlghnVzGQ733Ane2H6WM0Wo8VbGWeQzqt+i8dyc1O0YvT8p
PQxZNZxt5I9onX1AHztSpECG6K1Phm7xv0o=
-----END CERTIFICATE-----
Certificate:
    Data:
        Version: 3 (0x2)
        Serial Number: 100 (0x64)
    Signature Algorithm: sha256WithRSAEncryption
        Issuer: C = US, ST = Montana, L = Bozeman, O = Sawtooth, OU = Consulting, CN = www.wolfssl.com, emailAddress = info@wolfssl.com
        Validity
            Not Before: Jan 29 07:49:14 2021 GMT
            Not After : Oct 26 07:49:14 2023 GMT
        Subject: C = US, ST = Washington, L = Seattle, O = wolfSSL Inc., OU = Engineering, CN = chainF-ICA2-pathlen0, emailAddress = info@wolfssl.com
        Subject Public Key Info:
            Public Key Algorithm: rsaEncryption
                Public-Key: (2048 bit)
                Modulus:
                    00:ab:b4:a9:97:68:96:b9:91:c5:cf:89:90:e1:c6:
                    79:85:a0:a6:f0:a5:a0:0f:12:9b:b2:de:ad:6e:a0:
                    28:25:25:43:63:05:1d:70:42:fd:aa:2e:7b:a1:40:
                    0f:3a:ca:80:1f:cc:93:cd:03:22:54:eb:ed:e1:dc:
                    68:d4:12:f7:2b:3d:2a:3b:82:f4:d5:46:c8:31:c0:
                    3b:43:cc:36:bf:77:fb:91:59:e4:ea:22:09:0f:0e:
                    ff:33:c9:6f:09:42:60:01:7c:0a:89:aa:10:26:75:
                    d9:e3:ed:b8:17:ba:e6:c2:6a:ca:b2:a6:7b:52:30:
                    c0:5b:c9:55:0b:7e:51:df:f4:17:a1:a2:39:61:99:
                    1d:98:69:76:37:12:62:d9:12:c6:65:2f:77:81:9d:
                    36:51:1d:0f:a7:2c:78:bc:23:8a:82:79:57:50:94:
                    e6:23:f1:4a:80:08:46:60:63:66:36:6c:d4:f2:57:
                    b6:5c:6d:43:df:bf:30:45:ec:ee:0c:6d:b6:f2:29:
                    24:60:cb:1a:3d:b0:bf:d9:23:42:0b:a3:57:c6:c7:
                    c8:bd:51:ff:44:8d:55:36:ee:1e:90:f1:f6:69:f9:
                    4f:80:93:83:26:94:2a:c0:2b:e5:bc:20:57:db:8d:
                    92:1a:ad:de:28:a6:59:90:b8:69:8a:84:d3:e7:ab:
                    cc:23
                Exponent: 65537 (0x10001)
        X509v3 extensions:
            X509v3 Subject Key Identifier: 
                17:24:F1:B3:CA:D9:54:65:D7:F8:06:75:9C:60:C7:D8:85:A4:37:D7
            X509v3 Authority Key Identifier: 
                keyid:27:8E:67:11:74:C3:26:1D:3F:ED:33:63:B3:A4:D8:1D:30:E5:E8:D5
                DirName:/C=US/ST=Montana/L=Bozeman/O=Sawtooth/OU=Consulting/CN=www.wolfssl.com/emailAddress=info@wolfssl.com
                serial:5E:BA:A4:F4:B1:F7:48:25:E3:5F:9B:DA:A1:13:ED:D5:2B:03:67:15

            X509v3 Basic Constraints: 
                CA:TRUE, pathlen:0
            X509v3 Key Usage: 
                Certificate Sign, CRL Sign
    Signature Algorithm: sha256WithRSAEncryption
         60:24:6a:8f:71:2b:e4:d9:96:91:74:2b:af:97:64:e2:d5:86:
         1f:57:a9:de:22:c5:12:be:5a:72:69:31:b1:fa:f2:31:1e:25:
         c9:87:b7:ac:4b:98:10:24:ff:5e:90:5a:fe:76:3b:97:cf:d1:
         15:92:ab:f5:43:bd:61:cd:79:25:e2:e6:09:cb:29:3f:e7:e0:
         98:cb:6c:d9:f2:79:fb:52:20:22:32:e1:25:86:84:47:a4:a5:
         80:ec:0c:e4:db:ba:33:e6:c0:3d:9b:67:78:68:52:3a:27:69:
         fb:80:63:e0:12:d6:fc:b6:76:4d:be:a5:44:c5:35:46:a1:69:
         05:b6:f8:43:d8:8a:67:6d:32:b1:a2:35:10:23:34:c9:de:21:
         72:06:21:d3:c9:54:5d:5d:c3:fc:16:29:49:c9:03:2a:9e:6c:
         85:3a:a5:f1:bb:15:a6:66:01:90:ef:b5:5a:25:65:c1:60:f1:
         5d:54:9a:68:6b:c4:88:84:8b:a3:90:b8:2a:20:73:eb:53:76:
         c4:87:d5:78:58:79:24:38:9b:11:06:46:ca:54:03:b4:ab:a2:
         34:22:66:15:5b:5a:c2:d7:37:ca:0a:35:0b:ad:ac:54:0d:ed:
         82:53:35:27:7a:5d:fe:fd:fc:43:33:f7:f5:17:cd:b5:a0:2d:
         7d:10:cf:b1
-----BEGIN CERTIFICATE-----
MIIEzDCCA7SgAwIBAgIBZDANBgkqhkiG9w0BAQsFADCBlDELMAkGA1UEBhMCVVMx
EDAOBgNVBAgMB01vbnRhbmExEDAOBgNVBAcMB0JvemVtYW4xETAPBgNVBAoMCFNh
d3Rvb3RoMRMwEQYDVQQLDApDb25zdWx0aW5nMRgwFgYDVQQDDA93d3cud29sZnNz
bC5jb20xHzAdBgkqhkiG9w0BCQEWEGluZm9Ad29sZnNzbC5jb20wHhcNMjEwMTI5
MDc0OTE0WhcNMjMxMDI2MDc0OTE0WjCBoTELMAkGA1UEBhMCVVMxEzARBgNVBAgM
Cldhc2hpbmd0b24xEDAOBgNVBAcMB1NlYXR0bGUxFTATBgNVBAoMDHdvbGZTU0wg
SW5jLjEUMBIGA1UECwwLRW5naW5lZXJpbmcxHTAbBgNVBAMMFGNoYWluRi1JQ0Ey
LXBhdGhsZW4wMR8wHQYJKoZIhvcNAQkBFhBpbmZvQHdvbGZzc2wuY29tMIIBIjAN
BgkqhkiG9w0BAQEFAAOCAQ8AMIIBCgKCAQEAq7Spl2iWuZHFz4mQ4cZ5haCm8KWg
DxKbst6tbqAoJSVDYwUdcEL9qi57oUAPOsqAH8yTzQMiVOvt4dxo1BL3Kz0qO4L0
1UbIMcA7Q8w2v3f7kVnk6iIJDw7/M8lvCUJgAXwKiaoQJnXZ4+24F7rmwmrKsqZ7
UjDAW8lVC35R3/QXoaI5YZkdmGl2NxJi2RLGZS93gZ02UR0Ppyx4vCOKgnlXUJTm
I/FKgAhGYGNmNmzU8le2XG1D378wRezuDG228ikkYMsaPbC/2SNCC6NXxsfIvVH/
RI1VNu4ekPH2aflPgJODJpQqwCvlvCBX242SGq3eKKZZkLhpioTT56vMIwIDAQAB
o4IBGDCCARQwHQYDVR0OBBYEFBck8bPK2VRl1/gGdZxgx9iFpDfXMIHUBgNVHSME
gcwwgcmAFCeOZxF0wyYdP+0zY7Ok2B0w5ejVoYGapIGXMIGUMQswCQYDVQQGEwJV
UzEQMA4GA1UECAwHTW9udGFuYTEQMA4GA1UEBwwHQm96ZW1hbjERMA8GA1UECgwI
U2F3dG9vdGgxEzARBgNVBAsMCkNvbnN1bHRpbmcxGDAWBgNVBAMMD3d3dy53b2xm
c3NsLmNvbTEfMB0GCSqGSIb3DQEJARYQaW5mb0B3b2xmc3NsLmNvbYIUXrqk9LH3
SCXjX5vaoRPt1SsDZxUwDwYDVR0TBAgwBgEB/wIBADALBgNVHQ8EBAMCAQYwDQYJ
KoZIhvcNAQELBQADggEBAGAkao9xK+TZlpF0K6+XZOLVhh9Xqd4ixRK+WnJpMbH6
8jEeJcmHt6xLmBAk/16QWv52O5fP0RWSq/VDvWHNeSXi5gnLKT/n4JjLbNnyeftS
ICIy4SWGhEekpYDsDOTbujPmwD2bZ3hoUjonafuAY+AS1vy2dk2+pUTFNUahaQW2
+EPYimdtMrGiNRAjNMneIXIGIdPJVF1dw/wWKUnJAyqebIU6pfG7FaZmAZDvtVol
ZcFg8V1UmmhrxIiEi6OQuCogc+tTdsSH1XhYeSQ4mxEGRspUA7SrojQiZhVbWsLX
N8oKNQutrFQN7YJTNSd6Xf79/EMz9/UXzbWgLX0Qz7E=
-----END CERTIFICATE-----
