Certificate:
    Data:
        Version: 3 (0x2)
        Serial Number: 100 (0x64)
    Signature Algorithm: sha256WithRSAEncryption
        Issuer: C = US, ST = Washington, L = Seattle, O = wolfSSL Inc., OU = Engineering, CN = chainB-ICA2-pathlen1, emailAddress = info@wolfssl.com
        Validity
            Not Before: Jan 29 07:49:12 2021 GMT
            Not After : Oct 26 07:49:12 2023 GMT
        Subject: C = US, ST = Washington, L = Seattle, O = wolfSSL Inc., OU = Engineering, CN = chainB-ICA1-pathlen0, emailAddress = info@wolfssl.com
        Subject Public Key Info:
            Public Key Algorithm: rsaEncryption
                Public-Key: (2048 bit)
                Modulus:
                    00:b8:23:9d:d6:7f:62:85:52:9b:d6:e6:d0:45:70:
                    d7:1f:3a:8e:68:ea:48:93:0e:27:dc:27:41:be:0a:
                    26:ed:ba:ab:6a:de:3d:94:18:61:76:32:51:f3:e5:
                    c8:c3:19:9f:62:e6:72:c2:f1:4b:5b:09:11:05:e8:
                    27:85:6e:0b:b8:23:bd:91:40:af:24:8b:9f:09:5a:
                    4d:ff:93:3f:75:d2:48:82:16:f8:5c:ba:3f:06:4d:
                    5b:3d:2c:b0:c9:f6:24:be:d2:69:7d:70:66:e7:c5:
                    34:3d:51:d5:26:51:f9:fa:85:2a:42:1d:7e:69:eb:
                    bf:e8:cb:48:b7:37:4b:d3:d8:d5:f8:fa:e5:80:52:
                    81:23:a7:29:d8:93:59:dc:a3:b7:d6:94:cb:36:fa:
                    a3:e0:a1:e4:b6:3f:51:af:30:ae:cb:93:cb:e3:9c:
                    3e:2f:d2:4e:ae:58:25:cc:ab:a9:da:7c:c5:29:3e:
                    5d:52:23:a7:c6:5e:12:4d:eb:fd:5f:9b:fe:56:cf:
                    29:36:dc:70:3b:5d:80:4c:08:1a:01:43:56:bc:14:
                    5b:1f:02:26:e3:af:74:2a:b2:a7:c4:2f:62:51:2b:
                    64:7c:16:f3:7e:8c:d4:56:53:ac:57:d7:5d:07:c5:
                    a4:fc:19:6a:58:63:51:01:29:1a:f3:84:7d:b1:1d:
                    a5:1f
                Exponent: 65537 (0x10001)
        X509v3 extensions:
            X509v3 Subject Key Identifier: 
                0F:F6:C4:1C:E2:8A:76:95:E0:A5:01:F7:B8:F2:35:51:94:5E:47:35
            X509v3 Authority Key Identifier: 
                keyid:0F:4B:23:88:67:CB:FE:E6:91:B2:18:F6:12:59:F2:56:D0:2C:38:16
                DirName:/C=US/ST=Montana/L=Bozeman/O=Sawtooth/OU=Consulting/CN=www.wolfssl.com/emailAddress=info@wolfssl.com
                serial:64

            X509v3 Basic Constraints: 
                CA:TRUE, pathlen:0
            X509v3 Key Usage: 
                Certificate Sign, CRL Sign
    Signature Algorithm: sha256WithRSAEncryption
         22:c3:e6:ce:9b:53:2d:de:e2:90:fb:00:40:b3:03:e2:6b:c0:
         f6:93:ad:9a:06:3b:c4:b3:64:fc:aa:5e:39:45:2e:c5:53:99:
         19:43:ec:64:5f:0a:1e:3d:1d:ec:99:c0:6a:95:4e:cc:77:eb:
         0e:b9:dc:03:73:ba:88:9a:5a:0e:99:74:46:75:49:49:48:8d:
         ca:42:70:f8:b3:b2:f6:a0:2a:fb:17:98:6e:b1:af:9a:4a:95:
         94:dc:c1:7d:8c:80:4f:9c:ec:5a:c5:17:11:a6:c6:ef:56:1d:
         22:d0:1d:15:75:34:4a:68:72:2b:a0:30:c7:86:d9:f8:ae:9e:
         a9:cd:24:0f:69:02:81:a8:d6:c4:6c:64:78:41:ad:14:6f:89:
         4b:a2:e9:fc:8a:44:2a:d8:87:22:88:39:e3:3d:89:25:ea:76:
         a0:9d:ee:c6:3e:44:02:0e:34:66:38:c0:9c:09:2b:40:61:1b:
         aa:75:81:bd:b4:1b:e7:77:f7:59:b2:be:03:1a:4a:4e:f5:70:
         c8:c8:c3:24:81:6a:97:2b:ee:b6:50:d7:72:84:a8:f3:e6:c6:
         02:42:64:5f:75:28:5a:ea:36:52:28:eb:38:3a:d9:b6:de:79:
         c7:94:3c:bc:a1:c6:c9:32:cc:02:e2:3f:d1:63:a3:e1:a2:86:
         c4:58:5e:25
-----BEGIN CERTIFICATE-----
MIIExjCCA66gAwIBAgIBZDANBgkqhkiG9w0BAQsFADCBoTELMAkGA1UEBhMCVVMx
EzARBgNVBAgMCldhc2hpbmd0b24xEDAOBgNVBAcMB1NlYXR0bGUxFTATBgNVBAoM
DHdvbGZTU0wgSW5jLjEUMBIGA1UECwwLRW5naW5lZXJpbmcxHTAbBgNVBAMMFGNo
YWluQi1JQ0EyLXBhdGhsZW4xMR8wHQYJKoZIhvcNAQkBFhBpbmZvQHdvbGZzc2wu
Y29tMB4XDTIxMDEyOTA3NDkxMloXDTIzMTAyNjA3NDkxMlowgaExCzAJBgNVBAYT
AlVTMRMwEQYDVQQIDApXYXNoaW5ndG9uMRAwDgYDVQQHDAdTZWF0dGxlMRUwEwYD
VQQKDAx3b2xmU1NMIEluYy4xFDASBgNVBAsMC0VuZ2luZWVyaW5nMR0wGwYDVQQD
DBRjaGFpbkItSUNBMS1wYXRobGVuMDEfMB0GCSqGSIb3DQEJARYQaW5mb0B3b2xm
c3NsLmNvbTCCASIwDQYJKoZIhvcNAQEBBQADggEPADCCAQoCggEBALgjndZ/YoVS
m9bm0EVw1x86jmjqSJMOJ9wnQb4KJu26q2rePZQYYXYyUfPlyMMZn2LmcsLxS1sJ
EQXoJ4VuC7gjvZFArySLnwlaTf+TP3XSSIIW+Fy6PwZNWz0ssMn2JL7SaX1wZufF
ND1R1SZR+fqFKkIdfmnrv+jLSLc3S9PY1fj65YBSgSOnKdiTWdyjt9aUyzb6o+Ch
5LY/Ua8wrsuTy+OcPi/STq5YJcyrqdp8xSk+XVIjp8ZeEk3r/V+b/lbPKTbccDtd
gEwIGgFDVrwUWx8CJuOvdCqyp8QvYlErZHwW836M1FZTrFfXXQfFpPwZalhjUQEp
GvOEfbEdpR8CAwEAAaOCAQUwggEBMB0GA1UdDgQWBBQP9sQc4op2leClAfe48jVR
lF5HNTCBwQYDVR0jBIG5MIG2gBQPSyOIZ8v+5pGyGPYSWfJW0Cw4FqGBmqSBlzCB
lDELMAkGA1UEBhMCVVMxEDAOBgNVBAgMB01vbnRhbmExEDAOBgNVBAcMB0JvemVt
YW4xETAPBgNVBAoMCFNhd3Rvb3RoMRMwEQYDVQQLDApDb25zdWx0aW5nMRgwFgYD
VQQDDA93d3cud29sZnNzbC5jb20xHzAdBgkqhkiG9w0BCQEWEGluZm9Ad29sZnNz
bC5jb22CAWQwDwYDVR0TBAgwBgEB/wIBADALBgNVHQ8EBAMCAQYwDQYJKoZIhvcN
AQELBQADggEBACLD5s6bUy3e4pD7AECzA+JrwPaTrZoGO8SzZPyqXjlFLsVTmRlD
7GRfCh49HeyZwGqVTsx36w653ANzuoiaWg6ZdEZ1SUlIjcpCcPizsvagKvsXmG6x
r5pKlZTcwX2MgE+c7FrFFxGmxu9WHSLQHRV1NEpociugMMeG2fiunqnNJA9pAoGo
1sRsZHhBrRRviUui6fyKRCrYhyKIOeM9iSXqdqCd7sY+RAIONGY4wJwJK0BhG6p1
gb20G+d391myvgMaSk71cMjIwySBapcr7rZQ13KEqPPmxgJCZF91KFrqNlIo6zg6
2bbeeceUPLyhxskyzALiP9Fjo+GihsRYXiU=
-----END CERTIFICATE-----
