Certificate:
    Data:
        Version: 3 (0x2)
        Serial Number: 101 (0x65)
    Signature Algorithm: sha256WithRSAEncryption
        Issuer: C = US, ST = Washington, L = Seattle, O = wolfSSL Inc., OU = Engineering, CN = chainJ-ICA1-no_pathlen, emailAddress = info@wolfssl.com
        Validity
            Not Before: Jan 29 07:49:19 2021 GMT
            Not After : Oct 26 07:49:19 2023 GMT
        Subject: C = US, ST = Washington, L = Seattle, O = wolfSSL Inc., OU = Engineering, CN = chainJ-entity, emailAddress = info@wolfssl.com
        Subject Public Key Info:
            Public Key Algorithm: rsaEncryption
                Public-Key: (2048 bit)
                Modulus:
                    00:af:ff:57:18:69:73:8e:f2:37:75:17:59:2e:45:
                    8b:86:8e:cc:a9:87:c0:a4:b4:86:88:99:65:82:e2:
                    dc:ba:ff:f1:5d:68:bb:bb:eb:ef:f0:2a:7f:7a:5c:
                    55:1d:69:e2:39:62:12:66:ed:cd:33:89:85:33:13:
                    d3:93:f5:00:7e:17:03:c2:aa:55:4a:0c:be:10:6b:
                    7a:b8:ea:30:d3:a3:e1:97:af:fd:84:c5:7f:19:8a:
                    3d:8a:7a:a1:9e:e6:72:e3:88:af:a0:d9:e6:69:0a:
                    b5:81:cf:17:c3:b9:93:b3:25:04:4b:0b:e7:f1:43:
                    50:61:08:a6:cd:6f:59:2b:84:a8:55:a9:92:56:86:
                    67:b9:cf:6a:b8:f4:52:5c:b5:11:65:78:5b:6b:c5:
                    dd:a0:b7:0b:f6:6e:3b:da:b5:75:c0:82:68:51:28:
                    bd:24:c9:7b:44:d1:07:59:14:27:a8:4b:c3:7a:bc:
                    b1:d9:4c:52:6d:71:d3:d5:24:70:f0:32:03:7b:54:
                    49:7a:30:a0:3d:ae:47:23:cb:41:ba:f8:c7:95:ba:
                    ca:1b:1b:39:56:fd:6b:4e:c3:c4:70:25:3d:f2:a4:
                    ab:d2:c5:e5:24:e5:34:5d:aa:be:b7:66:10:57:08:
                    3e:a4:5a:f6:a8:94:f6:dc:6f:a1:82:bf:21:cb:4e:
                    72:c3
                Exponent: 65537 (0x10001)
        X509v3 extensions:
            X509v3 Subject Key Identifier: 
                5E:DB:9E:4F:44:E6:88:6F:9C:FC:E5:ED:A4:17:E6:4C:4A:2C:47:0C
            X509v3 Authority Key Identifier: 
                keyid:4B:F2:A0:E5:8A:11:B5:8F:45:72:43:BB:69:B7:35:CA:D5:63:01:2E
                DirName:/C=US/ST=Washington/L=Seattle/O=wolfSSL Inc./OU=Engineering/CN=chainJ-ICA2-no_pathlen/emailAddress=info@wolfssl.com
                serial:64

            X509v3 Basic Constraints: 
                CA:FALSE
    Signature Algorithm: sha256WithRSAEncryption
         4b:be:e3:e2:0c:72:05:e3:44:71:aa:31:61:ee:7a:31:80:f4:
         70:63:0b:d7:c2:22:42:b3:b4:99:34:fa:8e:77:3c:ae:20:c4:
         57:39:eb:35:db:08:8d:d9:ac:81:59:51:11:51:af:33:2c:59:
         92:b6:e9:98:23:7f:f3:f9:a9:5b:b5:77:72:28:c3:70:27:27:
         0c:e7:04:7f:1c:32:4c:df:67:b6:d1:95:18:77:5b:58:70:72:
         11:a5:e4:23:44:74:62:1c:ef:1d:cd:4c:58:3f:be:a3:68:55:
         de:90:55:4c:73:b0:87:eb:7a:b0:17:b3:9b:96:c6:30:3f:b8:
         e3:4d:e6:24:0d:69:5b:6a:76:bf:a5:ea:2a:e9:ad:be:0f:3a:
         14:54:3d:97:f4:94:ed:79:95:4f:c0:5e:93:a2:72:4a:41:d9:
         5d:01:26:5f:08:08:06:53:19:d9:e5:8d:6a:7c:61:6a:d1:c2:
         76:6f:ed:bb:85:08:2e:d9:e6:c7:40:7c:aa:b9:61:30:25:55:
         53:4a:ef:b5:03:ef:0e:76:cf:60:61:cb:29:e4:41:de:61:32:
         cd:d5:f1:25:4f:ed:f7:b9:96:20:30:76:63:3e:61:88:c7:b0:
         7d:b9:5c:59:06:16:eb:2f:63:c1:8c:14:45:99:ef:13:12:27:
         75:9d:98:b7
-----BEGIN CERTIFICATE-----
MIIEvDCCA6SgAwIBAgIBZTANBgkqhkiG9w0BAQsFADCBozELMAkGA1UEBhMCVVMx
EzARBgNVBAgMCldhc2hpbmd0b24xEDAOBgNVBAcMB1NlYXR0bGUxFTATBgNVBAoM
DHdvbGZTU0wgSW5jLjEUMBIGA1UECwwLRW5naW5lZXJpbmcxHzAdBgNVBAMMFmNo
YWluSi1JQ0ExLW5vX3BhdGhsZW4xHzAdBgkqhkiG9w0BCQEWEGluZm9Ad29sZnNz
bC5jb20wHhcNMjEwMTI5MDc0OTE5WhcNMjMxMDI2MDc0OTE5WjCBmjELMAkGA1UE
BhMCVVMxEzARBgNVBAgMCldhc2hpbmd0b24xEDAOBgNVBAcMB1NlYXR0bGUxFTAT
BgNVBAoMDHdvbGZTU0wgSW5jLjEUMBIGA1UECwwLRW5naW5lZXJpbmcxFjAUBgNV
BAMMDWNoYWluSi1lbnRpdHkxHzAdBgkqhkiG9w0BCQEWEGluZm9Ad29sZnNzbC5j
b20wggEiMA0GCSqGSIb3DQEBAQUAA4IBDwAwggEKAoIBAQCv/1cYaXOO8jd1F1ku
RYuGjsyph8CktIaImWWC4ty6//FdaLu76+/wKn96XFUdaeI5YhJm7c0ziYUzE9OT
9QB+FwPCqlVKDL4Qa3q46jDTo+GXr/2ExX8Zij2KeqGe5nLjiK+g2eZpCrWBzxfD
uZOzJQRLC+fxQ1BhCKbNb1krhKhVqZJWhme5z2q49FJctRFleFtrxd2gtwv2bjva
tXXAgmhRKL0kyXtE0QdZFCeoS8N6vLHZTFJtcdPVJHDwMgN7VEl6MKA9rkcjy0G6
+MeVusobGzlW/WtOw8RwJT3ypKvSxeUk5TRdqr63ZhBXCD6kWvaolPbcb6GCvyHL
TnLDAgMBAAGjggEAMIH9MB0GA1UdDgQWBBRe255PROaIb5z85e2kF+ZMSixHDDCB
0AYDVR0jBIHIMIHFgBRL8qDlihG1j0VyQ7tptzXK1WMBLqGBqaSBpjCBozELMAkG
A1UEBhMCVVMxEzARBgNVBAgMCldhc2hpbmd0b24xEDAOBgNVBAcMB1NlYXR0bGUx
FTATBgNVBAoMDHdvbGZTU0wgSW5jLjEUMBIGA1UECwwLRW5naW5lZXJpbmcxHzAd
BgNVBAMMFmNoYWluSi1JQ0EyLW5vX3BhdGhsZW4xHzAdBgkqhkiG9w0BCQEWEGlu
Zm9Ad29sZnNzbC5jb22CAWQwCQYDVR0TBAIwADANBgkqhkiG9w0BAQsFAAOCAQEA
S77j4gxyBeNEcaoxYe56MYD0cGML18IiQrO0mTT6jnc8riDEVznrNdsIjdmsgVlR
EVGvMyxZkrbpmCN/8/mpW7V3cijDcCcnDOcEfxwyTN9nttGVGHdbWHByEaXkI0R0
YhzvHc1MWD++o2hV3pBVTHOwh+t6sBezm5bGMD+4403mJA1pW2p2v6XqKumtvg86
FFQ9l/SU7XmVT8Bek6JySkHZXQEmXwgIBlMZ2eWNanxhatHCdm/tu4UILtnmx0B8
qrlhMCVVU0rvtQPvDnbPYGHLKeRB3mEyzdXxJU/t97mWIDB2Yz5hiMewfblcWQYW
6y9jwYwURZnvExIndZ2Ytw==
-----END CERTIFICATE-----
