Certificate:
    Data:
        Version: 3 (0x2)
        Serial Number: 100 (0x64)
    Signature Algorithm: sha256WithRSAEncryption
        Issuer: C = US, ST = Montana, L = Bozeman, O = Sawtooth, OU = Consulting, CN = www.wolfssl.com, emailAddress = info@wolfssl.com
        Validity
            Not Before: Jan 29 07:49:12 2021 GMT
            Not After : Oct 26 07:49:12 2023 GMT
        Subject: C = US, ST = Washington, L = Seattle, O = wolfSSL Inc., OU = Engineering, CN = chainB-ICA2-pathlen1, emailAddress = info@wolfssl.com
        Subject Public Key Info:
            Public Key Algorithm: rsaEncryption
                Public-Key: (2048 bit)
                Modulus:
                    00:cc:74:9c:8d:82:29:ae:9f:48:b7:65:6f:a7:56:
                    ee:b3:b1:0e:2c:78:d7:ca:32:a0:df:44:bc:31:dc:
                    a0:aa:76:7d:e8:53:63:06:37:7c:0a:5d:7c:33:d7:
                    42:d8:3a:d2:b4:f7:15:b7:f2:27:35:53:f0:c7:0d:
                    42:14:6f:67:f5:f4:ca:55:c7:60:83:93:c9:cd:96:
                    8a:a3:4c:e1:ae:73:4e:35:f9:e8:04:9c:4f:cd:17:
                    5f:f1:ab:1f:6e:65:cf:15:78:7c:cd:fb:89:28:69:
                    74:8b:dd:17:6e:01:ea:73:48:e2:e1:8a:57:a0:2e:
                    6f:04:84:55:06:50:38:78:6e:3c:c8:7f:2c:d3:09:
                    92:d2:8b:04:f3:03:03:e2:a1:05:17:7c:7a:4e:68:
                    ae:6a:5a:04:6a:79:b2:d5:92:93:c0:ad:04:1c:da:
                    41:af:1a:27:b4:8f:e9:05:0b:46:86:72:31:1b:4f:
                    31:f8:2e:3b:99:2c:67:ac:db:0e:de:85:64:bb:12:
                    40:64:d4:f3:b3:50:52:da:ee:95:fb:51:b0:59:f3:
                    b2:be:39:d6:f1:af:e1:ad:28:74:a7:18:d5:fe:dc:
                    5f:c9:30:70:ea:3c:4b:2c:19:65:37:4c:30:b4:76:
                    18:2e:97:f7:6f:71:0c:69:30:49:3a:61:68:80:c8:
                    bd:2d
                Exponent: 65537 (0x10001)
        X509v3 extensions:
            X509v3 Subject Key Identifier: 
                0F:4B:23:88:67:CB:FE:E6:91:B2:18:F6:12:59:F2:56:D0:2C:38:16
            X509v3 Authority Key Identifier: 
                keyid:27:8E:67:11:74:C3:26:1D:3F:ED:33:63:B3:A4:D8:1D:30:E5:E8:D5
                DirName:/C=US/ST=Montana/L=Bozeman/O=Sawtooth/OU=Consulting/CN=www.wolfssl.com/emailAddress=info@wolfssl.com
                serial:5E:BA:A4:F4:B1:F7:48:25:E3:5F:9B:DA:A1:13:ED:D5:2B:03:67:15

            X509v3 Basic Constraints: 
                CA:TRUE, pathlen:1
            X509v3 Key Usage: 
                Certificate Sign, CRL Sign
    Signature Algorithm: sha256WithRSAEncryption
         04:28:a2:7a:ee:8a:83:cf:08:26:e2:3b:92:f7:c8:74:e5:d9:
         e2:6f:cc:d8:9f:4e:ad:96:85:0e:a4:fe:ac:40:eb:11:df:60:
         f5:1a:ad:d0:a9:76:97:0d:fb:45:3e:34:21:cf:bc:24:e9:fc:
         6e:2b:36:ec:21:ba:58:25:d9:cc:07:90:c0:34:0b:43:91:8a:
         87:84:ca:95:30:39:ef:90:6a:f3:03:58:6f:c7:66:04:79:ef:
         a7:0b:c8:db:eb:89:fe:1b:c9:77:25:e6:b1:2e:0f:c4:89:2b:
         4f:75:86:66:c3:53:7e:94:b7:8f:bd:78:f1:1b:8f:8b:4e:ac:
         59:2d:70:19:c6:cd:32:5d:6f:e5:1f:27:65:b4:ec:66:e4:c2:
         f2:42:f3:79:31:3c:c5:07:7b:50:26:0c:d1:ed:af:ea:91:1f:
         1a:b6:90:16:4b:30:70:2e:ea:40:43:ba:38:38:fa:1f:79:af:
         9e:80:10:bf:b9:b6:88:cb:c7:9e:7f:a2:ae:a6:af:53:75:b3:
         9a:17:04:3d:67:1f:6e:f1:f1:1d:04:03:91:5e:32:dd:2a:1f:
         0a:46:08:e3:bb:10:9b:9a:18:ff:f0:33:46:7c:1e:30:f0:56:
         6c:e6:de:96:d6:56:f9:00:f2:35:f1:7f:a0:bf:98:84:46:5d:
         7b:c7:d5:0f
-----BEGIN CERTIFICATE-----
MIIEzDCCA7SgAwIBAgIBZDANBgkqhkiG9w0BAQsFADCBlDELMAkGA1UEBhMCVVMx
EDAOBgNVBAgMB01vbnRhbmExEDAOBgNVBAcMB0JvemVtYW4xETAPBgNVBAoMCFNh
d3Rvb3RoMRMwEQYDVQQLDApDb25zdWx0aW5nMRgwFgYDVQQDDA93d3cud29sZnNz
bC5jb20xHzAdBgkqhkiG9w0BCQEWEGluZm9Ad29sZnNzbC5jb20wHhcNMjEwMTI5
MDc0OTEyWhcNMjMxMDI2MDc0OTEyWjCBoTELMAkGA1UEBhMCVVMxEzARBgNVBAgM
Cldhc2hpbmd0b24xEDAOBgNVBAcMB1NlYXR0bGUxFTATBgNVBAoMDHdvbGZTU0wg
SW5jLjEUMBIGA1UECwwLRW5naW5lZXJpbmcxHTAbBgNVBAMMFGNoYWluQi1JQ0Ey
LXBhdGhsZW4xMR8wHQYJKoZIhvcNAQkBFhBpbmZvQHdvbGZzc2wuY29tMIIBIjAN
BgkqhkiG9w0BAQEFAAOCAQ8AMIIBCgKCAQEAzHScjYIprp9It2Vvp1bus7EOLHjX
yjKg30S8MdygqnZ96FNjBjd8Cl18M9dC2DrStPcVt/InNVPwxw1CFG9n9fTKVcdg
g5PJzZaKo0zhrnNONfnoBJxPzRdf8asfbmXPFXh8zfuJKGl0i90XbgHqc0ji4YpX
oC5vBIRVBlA4eG48yH8s0wmS0osE8wMD4qEFF3x6TmiualoEanmy1ZKTwK0EHNpB
rxontI/pBQtGhnIxG08x+C47mSxnrNsO3oVkuxJAZNTzs1BS2u6V+1GwWfOyvjnW
8a/hrSh0pxjV/txfyTBw6jxLLBllN0wwtHYYLpf3b3EMaTBJOmFogMi9LQIDAQAB
o4IBGDCCARQwHQYDVR0OBBYEFA9LI4hny/7mkbIY9hJZ8lbQLDgWMIHUBgNVHSME
gcwwgcmAFCeOZxF0wyYdP+0zY7Ok2B0w5ejVoYGapIGXMIGUMQswCQYDVQQGEwJV
UzEQMA4GA1UECAwHTW9udGFuYTEQMA4GA1UEBwwHQm96ZW1hbjERMA8GA1UECgwI
U2F3dG9vdGgxEzARBgNVBAsMCkNvbnN1bHRpbmcxGDAWBgNVBAMMD3d3dy53b2xm
c3NsLmNvbTEfMB0GCSqGSIb3DQEJARYQaW5mb0B3b2xmc3NsLmNvbYIUXrqk9LH3
SCXjX5vaoRPt1SsDZxUwDwYDVR0TBAgwBgEB/wIBATALBgNVHQ8EBAMCAQYwDQYJ
KoZIhvcNAQELBQADggEBAAQoonruioPPCCbiO5L3yHTl2eJvzNifTq2WhQ6k/qxA
6xHfYPUardCpdpcN+0U+NCHPvCTp/G4rNuwhulgl2cwHkMA0C0ORioeEypUwOe+Q
avMDWG/HZgR576cLyNvrif4byXcl5rEuD8SJK091hmbDU36Ut4+9ePEbj4tOrFkt
cBnGzTJdb+UfJ2W07GbkwvJC83kxPMUHe1AmDNHtr+qRHxq2kBZLMHAu6kBDujg4
+h95r56AEL+5tojLx55/oq6mr1N1s5oXBD1nH27x8R0EA5FeMt0qHwpGCOO7EJua
GP/wM0Z8HjDwVmzm3pbWVvkA8jXxf6C/mIRGXXvH1Q8=
-----END CERTIFICATE-----
