Certificate:
    Data:
        Version: 3 (0x2)
        Serial Number: 100 (0x64)
    Signature Algorithm: sha256WithRSAEncryption
        Issuer: C = US, ST = Montana, L = Bozeman, O = Sawtooth, OU = Consulting, CN = www.wolfssl.com, emailAddress = info@wolfssl.com
        Validity
            Not Before: Jan 29 07:49:16 2021 GMT
            Not After : Oct 26 07:49:16 2023 GMT
        Subject: C = US, ST = Washington, L = Seattle, O = wolfSSL Inc., OU = Engineering, CN = chainH-ICA4-pathlen2, emailAddress = info@wolfssl.com
        Subject Public Key Info:
            Public Key Algorithm: rsaEncryption
                Public-Key: (2048 bit)
                Modulus:
                    00:bf:6a:f1:31:45:5c:44:b5:a4:12:53:fb:57:21:
                    1b:c4:a3:1c:6c:2f:fc:02:a3:7e:be:99:a6:9a:34:
                    c6:ca:2a:c6:15:eb:ac:a8:77:e3:5a:35:1b:35:b3:
                    9c:8d:a2:0b:98:10:c9:ef:52:b7:d0:7b:fc:6e:4b:
                    50:58:d5:42:23:3e:97:51:53:cf:c6:34:8e:dc:f5:
                    8d:c7:dd:25:be:0d:da:f7:14:32:6b:db:1a:6b:49:
                    30:3a:5e:f8:ab:99:e0:10:01:c0:67:90:cd:d5:9d:
                    a3:90:f3:8b:00:0d:0d:6d:dc:92:aa:af:ed:c6:92:
                    2b:7e:fe:94:f3:b8:8f:81:0d:67:ab:ae:4d:ae:d3:
                    73:c7:1e:03:e5:78:52:e2:33:da:ac:b8:d3:74:53:
                    92:71:71:cb:51:03:b0:41:ca:02:86:db:ae:d0:94:
                    d6:2c:81:48:e1:a8:c4:c1:0f:ef:fd:87:5c:3f:8d:
                    73:ab:9d:f0:4b:fc:f8:3e:4f:79:f9:f1:cb:63:90:
                    06:e7:c3:a6:0f:78:f2:1a:5e:7d:e8:8c:8f:9c:b7:
                    de:de:9e:35:c5:99:98:9e:93:63:20:06:d2:7c:3d:
                    a3:21:65:dd:c4:b4:63:45:21:d3:3c:f0:96:fe:e8:
                    9b:10:a2:0b:cd:0d:17:21:c7:e9:8d:a7:17:57:30:
                    2a:65
                Exponent: 65537 (0x10001)
        X509v3 extensions:
            X509v3 Subject Key Identifier: 
                1A:D9:90:58:C9:BD:81:A3:8D:B7:97:FE:16:3E:80:1A:50:84:2D:FB
            X509v3 Authority Key Identifier: 
                keyid:27:8E:67:11:74:C3:26:1D:3F:ED:33:63:B3:A4:D8:1D:30:E5:E8:D5
                DirName:/C=US/ST=Montana/L=Bozeman/O=Sawtooth/OU=Consulting/CN=www.wolfssl.com/emailAddress=info@wolfssl.com
                serial:5E:BA:A4:F4:B1:F7:48:25:E3:5F:9B:DA:A1:13:ED:D5:2B:03:67:15

            X509v3 Basic Constraints: 
                CA:TRUE, pathlen:2
            X509v3 Key Usage: 
                Certificate Sign, CRL Sign
    Signature Algorithm: sha256WithRSAEncryption
         3c:f6:78:07:bf:f3:7e:63:63:a9:6c:3c:72:a6:4f:e0:b3:2f:
         02:fe:90:b1:d5:ea:2d:37:9b:2f:c6:42:70:c6:58:3b:98:0b:
         86:d9:a3:6b:53:aa:7e:4a:b1:a7:90:c1:e9:bd:90:53:54:0b:
         02:96:36:f0:3f:cb:ea:5a:4f:af:3d:73:d4:29:93:20:98:a3:
         0a:5b:74:a7:2d:b2:03:11:8f:67:15:07:65:d7:83:10:3a:65:
         03:d0:0f:94:df:fc:60:19:b9:b8:8f:f5:85:dd:24:c9:71:6e:
         fd:35:47:54:c6:6d:55:5f:9f:9f:98:76:4a:99:a1:b2:05:4f:
         dc:4c:8c:89:29:0e:e7:6b:2e:7f:44:27:0a:71:b7:95:1e:c5:
         1b:f0:9e:f4:49:d6:67:33:f8:61:2f:41:d0:e9:2f:19:30:0f:
         b4:51:ef:29:13:5b:0e:87:d1:e9:41:9a:ca:4d:61:47:a6:29:
         cd:55:68:a1:f9:0c:03:52:ff:e7:d7:a2:33:d3:6c:13:a2:42:
         da:8d:f9:ed:17:4a:37:b5:db:f8:67:af:bb:81:dc:28:59:6c:
         5d:a3:0b:81:fd:55:12:41:db:2b:cd:c6:00:4b:8c:b4:13:79:
         77:b6:a5:1f:86:16:a4:3c:31:57:36:d5:ea:fb:d3:9a:6d:ae:
         df:8a:cf:3e
-----BEGIN CERTIFICATE-----
MIIEzDCCA7SgAwIBAgIBZDANBgkqhkiG9w0BAQsFADCBlDELMAkGA1UEBhMCVVMx
EDAOBgNVBAgMB01vbnRhbmExEDAOBgNVBAcMB0JvemVtYW4xETAPBgNVBAoMCFNh
d3Rvb3RoMRMwEQYDVQQLDApDb25zdWx0aW5nMRgwFgYDVQQDDA93d3cud29sZnNz
bC5jb20xHzAdBgkqhkiG9w0BCQEWEGluZm9Ad29sZnNzbC5jb20wHhcNMjEwMTI5
MDc0OTE2WhcNMjMxMDI2MDc0OTE2WjCBoTELMAkGA1UEBhMCVVMxEzARBgNVBAgM
Cldhc2hpbmd0b24xEDAOBgNVBAcMB1NlYXR0bGUxFTATBgNVBAoMDHdvbGZTU0wg
SW5jLjEUMBIGA1UECwwLRW5naW5lZXJpbmcxHTAbBgNVBAMMFGNoYWluSC1JQ0E0
LXBhdGhsZW4yMR8wHQYJKoZIhvcNAQkBFhBpbmZvQHdvbGZzc2wuY29tMIIBIjAN
BgkqhkiG9w0BAQEFAAOCAQ8AMIIBCgKCAQEAv2rxMUVcRLWkElP7VyEbxKMcbC/8
AqN+vpmmmjTGyirGFeusqHfjWjUbNbOcjaILmBDJ71K30Hv8bktQWNVCIz6XUVPP
xjSO3PWNx90lvg3a9xQya9saa0kwOl74q5ngEAHAZ5DN1Z2jkPOLAA0NbdySqq/t
xpIrfv6U87iPgQ1nq65NrtNzxx4D5XhS4jParLjTdFOScXHLUQOwQcoChtuu0JTW
LIFI4ajEwQ/v/YdcP41zq53wS/z4Pk95+fHLY5AG58OmD3jyGl596IyPnLfe3p41
xZmYnpNjIAbSfD2jIWXdxLRjRSHTPPCW/uibEKILzQ0XIcfpjacXVzAqZQIDAQAB
o4IBGDCCARQwHQYDVR0OBBYEFBrZkFjJvYGjjbeX/hY+gBpQhC37MIHUBgNVHSME
gcwwgcmAFCeOZxF0wyYdP+0zY7Ok2B0w5ejVoYGapIGXMIGUMQswCQYDVQQGEwJV
UzEQMA4GA1UECAwHTW9udGFuYTEQMA4GA1UEBwwHQm96ZW1hbjERMA8GA1UECgwI
U2F3dG9vdGgxEzARBgNVBAsMCkNvbnN1bHRpbmcxGDAWBgNVBAMMD3d3dy53b2xm
c3NsLmNvbTEfMB0GCSqGSIb3DQEJARYQaW5mb0B3b2xmc3NsLmNvbYIUXrqk9LH3
SCXjX5vaoRPt1SsDZxUwDwYDVR0TBAgwBgEB/wIBAjALBgNVHQ8EBAMCAQYwDQYJ
KoZIhvcNAQELBQADggEBADz2eAe/835jY6lsPHKmT+CzLwL+kLHV6i03my/GQnDG
WDuYC4bZo2tTqn5KsaeQwem9kFNUCwKWNvA/y+paT689c9QpkyCYowpbdKctsgMR
j2cVB2XXgxA6ZQPQD5Tf/GAZubiP9YXdJMlxbv01R1TGbVVfn5+YdkqZobIFT9xM
jIkpDudrLn9EJwpxt5UexRvwnvRJ1mcz+GEvQdDpLxkwD7RR7ykTWw6H0elBmspN
YUemKc1VaKH5DANS/+fXojPTbBOiQtqN+e0XSje12/hnr7uB3ChZbF2jC4H9VRJB
2yvNxgBLjLQTeXe2pR+GFqQ8MVc21er705ptrt+Kzz4=
-----END CERTIFICATE-----
