Certificate:
    Data:
        Version: 3 (0x2)
        Serial Number: 100 (0x64)
    Signature Algorithm: sha256WithRSAEncryption
        Issuer: C = US, ST = Montana, L = Bozeman, O = Sawtooth, OU = Consulting, CN = www.wolfssl.com, emailAddress = info@wolfssl.com
        Validity
            Not Before: Jan 29 07:49:17 2021 GMT
            Not After : Oct 26 07:49:17 2023 GMT
        Subject: C = US, ST = Washington, L = Seattle, O = wolfSSL Inc., OU = Engineering, CN = chainI-ICA3-pathlen2, emailAddress = info@wolfssl.com
        Subject Public Key Info:
            Public Key Algorithm: rsaEncryption
                Public-Key: (2048 bit)
                Modulus:
                    00:a3:7d:1e:88:00:fc:a9:ce:e5:fc:50:9c:fd:b9:
                    bf:bc:3c:05:63:e7:bf:8c:1b:90:20:ae:f6:76:ad:
                    43:2e:8a:d2:27:b2:9c:c2:8d:e7:7d:d0:b5:02:6f:
                    40:bc:84:49:34:ed:13:c9:45:f1:df:87:8e:56:4f:
                    2c:ce:15:0b:a9:ce:a0:45:81:c6:97:f5:6d:d0:94:
                    cf:a8:10:ac:49:05:7b:fc:fb:8d:5c:e7:77:b7:39:
                    93:23:ae:bf:ec:e1:1d:f8:38:02:65:79:b1:14:1e:
                    d5:55:d4:fc:77:b7:45:38:a6:95:4f:f8:ba:41:59:
                    59:ad:5b:d6:15:f1:40:b8:ef:1e:aa:7c:c8:30:7e:
                    b1:68:e7:f7:45:5c:37:b7:a5:76:ea:4b:eb:61:6c:
                    d4:43:42:a3:60:2f:62:9a:80:18:c1:83:3b:f6:8a:
                    11:f6:db:41:59:41:d5:9e:98:5d:6b:8e:f3:cc:2b:
                    1f:ee:2c:2f:c9:af:50:aa:4f:46:fa:62:4b:5f:61:
                    40:e9:22:21:5a:1c:fd:85:97:93:01:95:05:3e:47:
                    df:f3:a7:67:ce:da:5d:2e:e6:6e:0a:67:55:c8:e7:
                    84:c3:7d:28:b3:09:f4:09:38:f2:8e:ba:06:4b:45:
                    60:5a:b9:5b:23:72:37:59:26:c2:a2:ce:f6:26:e6:
                    2c:cf
                Exponent: 65537 (0x10001)
        X509v3 extensions:
            X509v3 Subject Key Identifier: 
                17:17:C7:65:E5:60:CD:07:01:6C:EB:10:A2:02:15:8D:D3:C5:49:82
            X509v3 Authority Key Identifier: 
                keyid:27:8E:67:11:74:C3:26:1D:3F:ED:33:63:B3:A4:D8:1D:30:E5:E8:D5
                DirName:/C=US/ST=Montana/L=Bozeman/O=Sawtooth/OU=Consulting/CN=www.wolfssl.com/emailAddress=info@wolfssl.com
                serial:5E:BA:A4:F4:B1:F7:48:25:E3:5F:9B:DA:A1:13:ED:D5:2B:03:67:15

            X509v3 Basic Constraints: 
                CA:TRUE, pathlen:2
            X509v3 Key Usage: 
                Certificate Sign, CRL Sign
    Signature Algorithm: sha256WithRSAEncryption
         5e:79:a8:4f:51:44:32:c1:eb:d1:6a:24:87:ea:55:9a:08:00:
         f4:fc:57:46:ef:fc:a6:d7:fd:ac:66:b3:d3:da:be:4b:53:ff:
         86:d0:9c:a5:b5:4c:bc:f2:fc:ae:3c:05:9d:7f:c0:4c:d5:1c:
         e3:da:7f:ea:4c:91:85:8f:98:6b:ae:dc:61:2e:e7:46:f1:1f:
         d9:f2:78:19:c7:99:80:64:c7:60:16:1a:b0:cc:0d:4b:eb:a8:
         fd:6c:69:fa:64:59:8b:06:35:2b:60:f2:33:13:e0:a4:d8:8b:
         c8:af:bb:e2:17:ee:24:23:50:3f:5b:00:4f:e2:62:5e:bb:36:
         63:53:9e:90:3b:63:38:03:f8:6a:4e:3c:7a:f7:b1:43:88:8e:
         b9:7c:b8:db:29:58:c9:36:cb:f4:29:72:d1:42:f2:4b:93:c4:
         ea:99:3a:d9:d4:70:52:bf:9d:05:e6:99:c6:27:91:1c:bb:6a:
         21:20:f7:c1:4b:c1:32:0c:e2:eb:52:65:84:2d:3d:d5:70:07:
         43:75:e9:63:57:95:83:ab:77:b7:6a:6a:62:21:4f:62:e1:5a:
         87:71:84:47:7b:75:fd:22:61:ca:42:ea:41:86:38:ba:a1:7c:
         ac:b0:6a:15:70:c4:7f:01:f0:91:f4:e7:1b:5f:a2:7d:4c:cd:
         7f:89:c3:ef
-----BEGIN CERTIFICATE-----
MIIEzDCCA7SgAwIBAgIBZDANBgkqhkiG9w0BAQsFADCBlDELMAkGA1UEBhMCVVMx
EDAOBgNVBAgMB01vbnRhbmExEDAOBgNVBAcMB0JvemVtYW4xETAPBgNVBAoMCFNh
d3Rvb3RoMRMwEQYDVQQLDApDb25zdWx0aW5nMRgwFgYDVQQDDA93d3cud29sZnNz
bC5jb20xHzAdBgkqhkiG9w0BCQEWEGluZm9Ad29sZnNzbC5jb20wHhcNMjEwMTI5
MDc0OTE3WhcNMjMxMDI2MDc0OTE3WjCBoTELMAkGA1UEBhMCVVMxEzARBgNVBAgM
Cldhc2hpbmd0b24xEDAOBgNVBAcMB1NlYXR0bGUxFTATBgNVBAoMDHdvbGZTU0wg
SW5jLjEUMBIGA1UECwwLRW5naW5lZXJpbmcxHTAbBgNVBAMMFGNoYWluSS1JQ0Ez
LXBhdGhsZW4yMR8wHQYJKoZIhvcNAQkBFhBpbmZvQHdvbGZzc2wuY29tMIIBIjAN
BgkqhkiG9w0BAQEFAAOCAQ8AMIIBCgKCAQEAo30eiAD8qc7l/FCc/bm/vDwFY+e/
jBuQIK72dq1DLorSJ7Kcwo3nfdC1Am9AvIRJNO0TyUXx34eOVk8szhULqc6gRYHG
l/Vt0JTPqBCsSQV7/PuNXOd3tzmTI66/7OEd+DgCZXmxFB7VVdT8d7dFOKaVT/i6
QVlZrVvWFfFAuO8eqnzIMH6xaOf3RVw3t6V26kvrYWzUQ0KjYC9imoAYwYM79ooR
9ttBWUHVnphda47zzCsf7iwvya9Qqk9G+mJLX2FA6SIhWhz9hZeTAZUFPkff86dn
ztpdLuZuCmdVyOeEw30oswn0CTjyjroGS0VgWrlbI3I3WSbCos72JuYszwIDAQAB
o4IBGDCCARQwHQYDVR0OBBYEFBcXx2XlYM0HAWzrEKICFY3TxUmCMIHUBgNVHSME
gcwwgcmAFCeOZxF0wyYdP+0zY7Ok2B0w5ejVoYGapIGXMIGUMQswCQYDVQQGEwJV
UzEQMA4GA1UECAwHTW9udGFuYTEQMA4GA1UEBwwHQm96ZW1hbjERMA8GA1UECgwI
U2F3dG9vdGgxEzARBgNVBAsMCkNvbnN1bHRpbmcxGDAWBgNVBAMMD3d3dy53b2xm
c3NsLmNvbTEfMB0GCSqGSIb3DQEJARYQaW5mb0B3b2xmc3NsLmNvbYIUXrqk9LH3
SCXjX5vaoRPt1SsDZxUwDwYDVR0TBAgwBgEB/wIBAjALBgNVHQ8EBAMCAQYwDQYJ
KoZIhvcNAQELBQADggEBAF55qE9RRDLB69FqJIfqVZoIAPT8V0bv/KbX/axms9Pa
vktT/4bQnKW1TLzy/K48BZ1/wEzVHOPaf+pMkYWPmGuu3GEu50bxH9nyeBnHmYBk
x2AWGrDMDUvrqP1safpkWYsGNStg8jMT4KTYi8ivu+IX7iQjUD9bAE/iYl67NmNT
npA7YzgD+GpOPHr3sUOIjrl8uNspWMk2y/QpctFC8kuTxOqZOtnUcFK/nQXmmcYn
kRy7aiEg98FLwTIM4utSZYQtPdVwB0N16WNXlYOrd7dqamIhT2LhWodxhEd7df0i
YcpC6kGGOLqhfKywahVwxH8B8JH05xtfon1MzX+Jw+8=
-----END CERTIFICATE-----
