Certificate:
    Data:
        Version: 3 (0x2)
        Serial Number: 100 (0x64)
    Signature Algorithm: sha256WithRSAEncryption
        Issuer: C = US, ST = Washington, L = Seattle, O = wolfSSL Inc., OU = Engineering, CN = chainH-ICA2-pathlen2, emailAddress = info@wolfssl.com
        Validity
            Not Before: Jan 29 07:49:17 2021 GMT
            Not After : Oct 26 07:49:17 2023 GMT
        Subject: C = US, ST = Washington, L = Seattle, O = wolfSSL Inc., OU = Engineering, CN = chainH-ICA1-pathlen0, emailAddress = info@wolfssl.com
        Subject Public Key Info:
            Public Key Algorithm: rsaEncryption
                Public-Key: (2048 bit)
                Modulus:
                    00:a0:65:54:f9:3a:79:99:dd:be:9c:4a:ba:78:63:
                    c9:12:37:3f:bb:11:b4:32:be:6d:d0:8b:0d:b8:dc:
                    9b:dd:c4:e7:4e:e2:13:9b:9d:09:b6:57:a8:da:61:
                    aa:60:8d:32:60:5b:71:56:5e:46:6c:e7:63:b2:a4:
                    50:c3:4f:05:e4:a8:cc:eb:e8:c2:91:07:3f:22:9a:
                    9d:85:70:49:9e:cb:9c:01:77:04:a7:19:56:32:d3:
                    30:b6:21:35:00:ed:27:fb:51:19:eb:e0:3e:c9:f1:
                    5d:20:7c:fd:1a:4b:40:e1:6c:53:78:98:01:db:3d:
                    80:a9:68:b8:89:be:3a:91:b4:db:26:6f:b0:31:04:
                    3f:f9:da:c3:6d:0e:dc:bf:65:6c:fe:38:66:e6:bc:
                    77:47:7a:c8:06:d7:68:cd:fe:7e:b1:cd:5d:c6:8d:
                    af:e7:4b:76:23:aa:3d:7b:c6:c0:5a:19:33:bd:a4:
                    73:66:ee:80:f9:2b:99:49:2c:0b:b6:0a:12:36:eb:
                    b9:22:c6:87:b0:4a:8a:07:a7:91:4a:09:d2:b6:fb:
                    aa:ce:2c:f0:b2:0a:e9:99:0b:69:8c:2f:47:66:62:
                    14:c5:2e:d3:87:c7:62:9a:ad:2c:9e:cb:59:6f:0d:
                    67:0b:87:db:ad:c0:8d:ad:13:dc:f7:aa:ac:b7:04:
                    c5:1d
                Exponent: 65537 (0x10001)
        X509v3 extensions:
            X509v3 Subject Key Identifier: 
                A2:B8:B2:83:78:10:4B:2D:08:98:8E:71:D9:C6:7C:45:A6:8D:E5:00
            X509v3 Authority Key Identifier: 
                keyid:52:2A:A8:59:E3:C3:CF:D6:23:49:F2:97:7C:48:CD:88:D2:82:95:AD
                DirName:/C=US/ST=Washington/L=Seattle/O=wolfSSL Inc./OU=Engineering/CN=chainH-ICA3-pathlen2/emailAddress=info@wolfssl.com
                serial:64

            X509v3 Basic Constraints: 
                CA:TRUE, pathlen:0
            X509v3 Key Usage: 
                Certificate Sign, CRL Sign
    Signature Algorithm: sha256WithRSAEncryption
         e1:1e:7e:b0:6b:49:5c:c6:7e:d8:b4:d4:0f:c3:e7:22:d5:fc:
         4a:1d:73:5f:c6:4a:30:3d:21:5f:95:67:9c:f7:1f:92:fb:29:
         1f:98:6c:02:58:83:51:ac:02:7e:56:ee:e0:ac:e2:93:5a:2a:
         7e:05:80:f7:8a:59:a4:88:64:f3:ad:cd:63:04:66:0e:fd:bf:
         b9:dd:fb:2e:69:71:8a:e8:76:51:8a:ab:77:e9:82:38:57:34:
         e3:9f:e7:41:cf:9e:15:a2:42:1c:05:09:af:97:cf:d4:e3:ca:
         d6:9e:21:ed:77:6c:3c:09:a7:58:cd:4e:90:a0:ec:8b:9f:53:
         30:a3:e1:c8:95:7a:f9:12:90:93:f0:ad:85:30:29:44:44:95:
         44:1b:d6:d0:98:9c:d8:41:a3:23:78:36:6d:32:b7:72:f3:44:
         46:2a:81:65:85:9a:2d:ac:5d:f7:ae:bf:1e:8c:24:07:b6:d2:
         d1:fb:02:58:ac:33:1a:de:cb:66:23:f8:af:e5:11:a0:e6:4a:
         99:db:54:b3:df:82:6c:ee:c7:6b:83:8b:a2:1c:ce:b2:03:59:
         d9:0d:13:85:11:a2:ad:a0:09:52:5d:a2:4b:e5:4d:d3:4f:32:
         90:94:9a:3f:63:3e:ff:aa:be:69:25:0d:c1:e4:3f:53:c9:67:
         3e:b0:5c:e6
-----BEGIN CERTIFICATE-----
MIIE0zCCA7ugAwIBAgIBZDANBgkqhkiG9w0BAQsFADCBoTELMAkGA1UEBhMCVVMx
EzARBgNVBAgMCldhc2hpbmd0b24xEDAOBgNVBAcMB1NlYXR0bGUxFTATBgNVBAoM
DHdvbGZTU0wgSW5jLjEUMBIGA1UECwwLRW5naW5lZXJpbmcxHTAbBgNVBAMMFGNo
YWluSC1JQ0EyLXBhdGhsZW4yMR8wHQYJKoZIhvcNAQkBFhBpbmZvQHdvbGZzc2wu
Y29tMB4XDTIxMDEyOTA3NDkxN1oXDTIzMTAyNjA3NDkxN1owgaExCzAJBgNVBAYT
AlVTMRMwEQYDVQQIDApXYXNoaW5ndG9uMRAwDgYDVQQHDAdTZWF0dGxlMRUwEwYD
VQQKDAx3b2xmU1NMIEluYy4xFDASBgNVBAsMC0VuZ2luZWVyaW5nMR0wGwYDVQQD
DBRjaGFpbkgtSUNBMS1wYXRobGVuMDEfMB0GCSqGSIb3DQEJARYQaW5mb0B3b2xm
c3NsLmNvbTCCASIwDQYJKoZIhvcNAQEBBQADggEPADCCAQoCggEBAKBlVPk6eZnd
vpxKunhjyRI3P7sRtDK+bdCLDbjcm93E507iE5udCbZXqNphqmCNMmBbcVZeRmzn
Y7KkUMNPBeSozOvowpEHPyKanYVwSZ7LnAF3BKcZVjLTMLYhNQDtJ/tRGevgPsnx
XSB8/RpLQOFsU3iYAds9gKlouIm+OpG02yZvsDEEP/naw20O3L9lbP44Zua8d0d6
yAbXaM3+frHNXcaNr+dLdiOqPXvGwFoZM72kc2bugPkrmUksC7YKEjbruSLGh7BK
igenkUoJ0rb7qs4s8LIK6ZkLaYwvR2ZiFMUu04fHYpqtLJ7LWW8NZwuH263Aja0T
3PeqrLcExR0CAwEAAaOCARIwggEOMB0GA1UdDgQWBBSiuLKDeBBLLQiYjnHZxnxF
po3lADCBzgYDVR0jBIHGMIHDgBRSKqhZ48PP1iNJ8pd8SM2I0oKVraGBp6SBpDCB
oTELMAkGA1UEBhMCVVMxEzARBgNVBAgMCldhc2hpbmd0b24xEDAOBgNVBAcMB1Nl
YXR0bGUxFTATBgNVBAoMDHdvbGZTU0wgSW5jLjEUMBIGA1UECwwLRW5naW5lZXJp
bmcxHTAbBgNVBAMMFGNoYWluSC1JQ0EzLXBhdGhsZW4yMR8wHQYJKoZIhvcNAQkB
FhBpbmZvQHdvbGZzc2wuY29tggFkMA8GA1UdEwQIMAYBAf8CAQAwCwYDVR0PBAQD
AgEGMA0GCSqGSIb3DQEBCwUAA4IBAQDhHn6wa0lcxn7YtNQPw+ci1fxKHXNfxkow
PSFflWec9x+S+ykfmGwCWINRrAJ+Vu7grOKTWip+BYD3ilmkiGTzrc1jBGYO/b+5
3fsuaXGK6HZRiqt36YI4VzTjn+dBz54VokIcBQmvl8/U48rWniHtd2w8CadYzU6Q
oOyLn1Mwo+HIlXr5EpCT8K2FMClERJVEG9bQmJzYQaMjeDZtMrdy80RGKoFlhZot
rF33rr8ejCQHttLR+wJYrDMa3stmI/iv5RGg5kqZ21Sz34Js7sdrg4uiHM6yA1nZ
DROFEaKtoAlSXaJL5U3TTzKQlJo/Yz7/qr5pJQ3B5D9TyWc+sFzm
-----END CERTIFICATE-----
