Certificate:
    Data:
        Version: 3 (0x2)
        Serial Number: 100 (0x64)
    Signature Algorithm: sha256WithRSAEncryption
        Issuer: C = US, ST = Washington, L = Seattle, O = wolfSSL Inc., OU = Engineering, CN = chainG-ICA2-pathlen1, emailAddress = info@wolfssl.com
        Validity
            Not Before: Jan 29 07:49:16 2021 GMT
            Not After : Oct 26 07:49:16 2023 GMT
        Subject: C = US, ST = Washington, L = Seattle, O = wolfSSL Inc., OU = Engineering, CN = chainG-ICA1-pathlen0, emailAddress = info@wolfssl.com
        Subject Public Key Info:
            Public Key Algorithm: rsaEncryption
                Public-Key: (2048 bit)
                Modulus:
                    00:b5:26:c9:dc:47:d7:4b:75:9b:fa:69:99:16:28:
                    ac:99:c5:85:a2:1e:13:6b:42:ea:0f:6d:8b:6e:14:
                    4e:22:72:e3:3b:34:2b:5a:f6:7b:21:e5:a2:c6:08:
                    06:b4:93:9a:df:9d:3d:73:fb:70:16:ce:e5:8c:92:
                    9e:4f:b1:91:d8:44:35:e3:ae:6c:fb:61:a5:9f:ff:
                    29:f7:89:4c:c3:2d:6c:5d:3d:b7:1a:8c:9a:19:b0:
                    c7:e8:9c:e6:50:cf:b2:0d:c6:ed:bd:41:77:3d:6a:
                    b1:af:2a:68:4b:cf:d3:6a:cf:dd:3f:b9:86:26:ba:
                    df:2b:03:ad:f2:f9:03:8e:47:b2:29:97:f4:3a:48:
                    14:57:42:8e:31:78:2e:3f:a6:5e:a3:f4:5c:05:87:
                    5f:f1:36:35:9d:7e:2a:8f:fe:c0:8b:6c:29:c8:b8:
                    78:e2:b0:05:a5:4a:b1:56:8b:69:f5:55:06:db:67:
                    d3:11:d1:d8:74:1a:c3:b8:9e:c3:35:76:c4:53:cf:
                    58:1a:0d:6c:e6:62:ea:ce:70:83:41:28:49:ce:f5:
                    15:aa:d8:59:ae:cb:50:54:97:bd:68:bf:15:7a:b0:
                    7d:be:ed:99:79:16:47:43:88:08:eb:f4:11:ac:c1:
                    2f:65:23:a1:f5:81:31:67:58:5e:c5:6d:bf:33:b4:
                    36:9b
                Exponent: 65537 (0x10001)
        X509v3 extensions:
            X509v3 Subject Key Identifier: 
                7C:C5:FB:19:F0:D5:F8:BD:88:D1:27:7D:3A:4E:76:50:E1:51:6D:F1
            X509v3 Authority Key Identifier: 
                keyid:22:58:EE:9C:93:3B:8A:86:3C:9B:4D:B4:4F:78:93:3C:96:72:66:38
                DirName:/C=US/ST=Washington/L=Seattle/O=wolfSSL Inc./OU=Engineering/CN=chainG-ICA3-pathlen99/emailAddress=info@wolfssl.com
                serial:64

            X509v3 Basic Constraints: 
                CA:TRUE, pathlen:0
            X509v3 Key Usage: 
                Certificate Sign, CRL Sign
    Signature Algorithm: sha256WithRSAEncryption
         4f:f1:63:cc:6b:45:2f:85:96:be:58:08:32:6b:99:50:8a:59:
         9a:67:fd:1a:21:5f:16:9c:4f:76:0c:3d:fb:2b:d4:1e:21:e6:
         b7:6b:91:35:4f:da:ff:3e:6d:21:ef:67:65:0f:92:f5:b5:f4:
         a7:86:23:d3:94:70:64:b1:2a:8b:aa:e4:cc:f1:60:50:77:3b:
         a0:a2:b2:33:ed:d0:02:64:52:05:de:7d:a0:67:d2:80:34:de:
         2a:6f:21:4b:b7:d9:cc:c1:55:b8:8b:c9:a3:4f:e8:26:1d:9e:
         ae:4f:69:ce:6d:55:21:c5:5c:f2:25:98:a5:f7:ac:dc:0f:d5:
         5d:24:d9:9c:2a:7d:74:c9:6f:40:ab:4b:81:44:25:ae:f8:49:
         07:36:d6:1c:0b:84:0f:ed:01:92:e4:ad:dd:12:e4:ef:07:e4:
         ee:1b:92:4b:84:b7:d8:f8:0b:86:f6:ee:01:16:f7:ff:23:68:
         21:99:2a:87:ce:09:11:53:47:2b:36:75:85:6c:3e:24:95:a9:
         96:1c:e2:a4:b0:f7:01:2e:4c:e2:e4:f7:08:ad:99:9f:f9:33:
         54:e2:04:59:bc:51:e1:f2:5f:1b:fc:49:35:66:09:4a:ff:79:
         15:dd:bd:da:08:01:c1:05:82:60:e7:a8:d1:09:0f:1f:d4:73:
         3d:49:9b:a3
-----BEGIN CERTIFICATE-----
MIIE1DCCA7ygAwIBAgIBZDANBgkqhkiG9w0BAQsFADCBoTELMAkGA1UEBhMCVVMx
EzARBgNVBAgMCldhc2hpbmd0b24xEDAOBgNVBAcMB1NlYXR0bGUxFTATBgNVBAoM
DHdvbGZTU0wgSW5jLjEUMBIGA1UECwwLRW5naW5lZXJpbmcxHTAbBgNVBAMMFGNo
YWluRy1JQ0EyLXBhdGhsZW4xMR8wHQYJKoZIhvcNAQkBFhBpbmZvQHdvbGZzc2wu
Y29tMB4XDTIxMDEyOTA3NDkxNloXDTIzMTAyNjA3NDkxNlowgaExCzAJBgNVBAYT
AlVTMRMwEQYDVQQIDApXYXNoaW5ndG9uMRAwDgYDVQQHDAdTZWF0dGxlMRUwEwYD
VQQKDAx3b2xmU1NMIEluYy4xFDASBgNVBAsMC0VuZ2luZWVyaW5nMR0wGwYDVQQD
DBRjaGFpbkctSUNBMS1wYXRobGVuMDEfMB0GCSqGSIb3DQEJARYQaW5mb0B3b2xm
c3NsLmNvbTCCASIwDQYJKoZIhvcNAQEBBQADggEPADCCAQoCggEBALUmydxH10t1
m/ppmRYorJnFhaIeE2tC6g9ti24UTiJy4zs0K1r2eyHlosYIBrSTmt+dPXP7cBbO
5YySnk+xkdhENeOubPthpZ//KfeJTMMtbF09txqMmhmwx+ic5lDPsg3G7b1Bdz1q
sa8qaEvP02rP3T+5hia63ysDrfL5A45HsimX9DpIFFdCjjF4Lj+mXqP0XAWHX/E2
NZ1+Ko/+wItsKci4eOKwBaVKsVaLafVVBttn0xHR2HQaw7iewzV2xFPPWBoNbOZi
6s5wg0EoSc71FarYWa7LUFSXvWi/FXqwfb7tmXkWR0OICOv0EazBL2UjofWBMWdY
XsVtvzO0NpsCAwEAAaOCARMwggEPMB0GA1UdDgQWBBR8xfsZ8NX4vYjRJ306TnZQ
4VFt8TCBzwYDVR0jBIHHMIHEgBQiWO6ckzuKhjybTbRPeJM8lnJmOKGBqKSBpTCB
ojELMAkGA1UEBhMCVVMxEzARBgNVBAgMCldhc2hpbmd0b24xEDAOBgNVBAcMB1Nl
YXR0bGUxFTATBgNVBAoMDHdvbGZTU0wgSW5jLjEUMBIGA1UECwwLRW5naW5lZXJp
bmcxHjAcBgNVBAMMFWNoYWluRy1JQ0EzLXBhdGhsZW45OTEfMB0GCSqGSIb3DQEJ
ARYQaW5mb0B3b2xmc3NsLmNvbYIBZDAPBgNVHRMECDAGAQH/AgEAMAsGA1UdDwQE
AwIBBjANBgkqhkiG9w0BAQsFAAOCAQEAT/FjzGtFL4WWvlgIMmuZUIpZmmf9GiFf
FpxPdgw9+yvUHiHmt2uRNU/a/z5tIe9nZQ+S9bX0p4Yj05RwZLEqi6rkzPFgUHc7
oKKyM+3QAmRSBd59oGfSgDTeKm8hS7fZzMFVuIvJo0/oJh2erk9pzm1VIcVc8iWY
pfes3A/VXSTZnCp9dMlvQKtLgUQlrvhJBzbWHAuED+0BkuSt3RLk7wfk7huSS4S3
2PgLhvbuARb3/yNoIZkqh84JEVNHKzZ1hWw+JJWplhzipLD3AS5M4uT3CK2Zn/kz
VOIEWbxR4fJfG/xJNWYJSv95Fd292ggBwQWCYOeo0QkPH9RzPUmbow==
-----END CERTIFICATE-----
