Certificate:
    Data:
        Version: 3 (0x2)
        Serial Number: 100 (0x64)
    Signature Algorithm: sha256WithRSAEncryption
        Issuer: C = US, ST = Washington, L = Seattle, O = wolfSSL Inc., OU = Engineering, CN = chainG-ICA3-pathlen99, emailAddress = info@wolfssl.com
        Validity
            Not Before: Jan 29 07:49:15 2021 GMT
            Not After : Oct 26 07:49:15 2023 GMT
        Subject: C = US, ST = Washington, L = Seattle, O = wolfSSL Inc., OU = Engineering, CN = chainG-ICA2-pathlen1, emailAddress = info@wolfssl.com
        Subject Public Key Info:
            Public Key Algorithm: rsaEncryption
                Public-Key: (2048 bit)
                Modulus:
                    00:b8:94:3a:35:2a:4e:cb:9f:c0:67:1d:49:d6:bc:
                    fc:4e:52:43:6f:ae:12:bd:41:8c:5d:51:8a:1c:96:
                    45:f6:24:86:ee:c0:21:0a:57:e0:c0:60:bc:4c:22:
                    e9:76:a3:37:64:b7:8f:89:a0:9f:7b:9a:c4:8d:6e:
                    e7:95:f4:50:59:b3:b0:eb:ea:94:0e:66:10:5f:67:
                    b0:a8:a6:94:05:f2:8d:00:5c:df:a6:36:25:76:44:
                    c0:9f:a4:8d:56:81:70:7c:3c:57:42:1d:aa:ec:61:
                    03:b7:a7:ae:b0:a2:d8:17:69:c3:d9:54:c3:49:be:
                    58:25:5c:51:f6:9c:16:e0:21:04:b2:a0:25:20:18:
                    92:1d:00:aa:98:96:8b:d2:f9:b1:98:a8:87:5b:f5:
                    5f:2b:c4:6e:6a:eb:0e:55:2f:04:b4:04:b2:46:95:
                    03:15:26:00:7f:f3:d9:e4:6f:94:54:cb:70:d1:43:
                    fb:4d:98:25:ce:04:c5:08:22:f9:9a:ef:2e:96:93:
                    01:83:1f:3b:1d:8c:9c:d7:21:aa:12:6b:62:e2:9f:
                    e8:4f:88:b1:fb:bf:d4:1f:5d:39:9e:fc:b4:95:8b:
                    30:37:6d:2e:1e:87:6a:91:67:7f:27:8d:03:31:70:
                    28:70:da:1e:32:e5:f3:62:95:cf:0f:d7:f1:2c:ee:
                    e2:97
                Exponent: 65537 (0x10001)
        X509v3 extensions:
            X509v3 Subject Key Identifier: 
                22:58:EE:9C:93:3B:8A:86:3C:9B:4D:B4:4F:78:93:3C:96:72:66:38
            X509v3 Authority Key Identifier: 
                keyid:B8:B7:89:E7:36:8E:D1:FF:EA:1B:27:90:78:C3:AE:58:26:BC:86:19
                DirName:/C=US/ST=Washington/L=Seattle/O=wolfSSL Inc./OU=Engineering/CN=chainG-ICA4-pathlen5/emailAddress=info@wolfssl.com
                serial:64

            X509v3 Basic Constraints: 
                CA:TRUE, pathlen:1
            X509v3 Key Usage: 
                Certificate Sign, CRL Sign
    Signature Algorithm: sha256WithRSAEncryption
         42:ba:9b:06:f0:5d:50:5a:46:48:7a:d6:fd:34:d2:86:20:67:
         2f:3e:8c:ca:21:41:c8:d4:05:bf:3b:1d:e8:67:68:db:ea:7d:
         d3:d9:96:db:3d:20:04:67:04:19:3f:8b:19:c6:7f:4d:67:71:
         5f:7f:e4:c1:44:cd:d9:2a:3e:37:aa:75:b2:55:32:6c:08:91:
         96:0e:d1:b7:fe:eb:9a:f6:76:9c:d8:12:e5:49:13:93:68:32:
         8d:c5:a2:b8:11:9c:84:5f:68:0b:96:9a:49:f1:db:15:96:2c:
         b2:58:72:f0:4d:96:63:db:23:81:0e:11:1b:1c:da:d8:7f:db:
         80:61:37:09:fa:15:d6:d8:bb:07:1e:66:cf:80:be:b4:5d:86:
         11:5e:91:a4:0b:1e:84:28:46:99:78:05:36:ad:67:a1:a4:de:
         3a:44:08:64:e6:59:b9:09:92:5a:b0:5b:d8:44:f8:8f:90:16:
         9b:e3:79:14:b5:cb:d4:97:48:83:36:0d:18:75:54:10:c9:7e:
         89:f9:0f:c6:0d:6e:0a:33:1c:8d:21:30:2e:e5:ba:13:ed:d4:
         61:48:b6:9b:a2:6e:da:50:70:13:c0:fd:b9:ce:a4:20:25:65:
         ea:8d:62:eb:66:34:24:1e:b6:26:13:39:2d:82:62:e5:89:d7:
         37:96:ec:cc
-----BEGIN CERTIFICATE-----
MIIE1DCCA7ygAwIBAgIBZDANBgkqhkiG9w0BAQsFADCBojELMAkGA1UEBhMCVVMx
EzARBgNVBAgMCldhc2hpbmd0b24xEDAOBgNVBAcMB1NlYXR0bGUxFTATBgNVBAoM
DHdvbGZTU0wgSW5jLjEUMBIGA1UECwwLRW5naW5lZXJpbmcxHjAcBgNVBAMMFWNo
YWluRy1JQ0EzLXBhdGhsZW45OTEfMB0GCSqGSIb3DQEJARYQaW5mb0B3b2xmc3Ns
LmNvbTAeFw0yMTAxMjkwNzQ5MTVaFw0yMzEwMjYwNzQ5MTVaMIGhMQswCQYDVQQG
EwJVUzETMBEGA1UECAwKV2FzaGluZ3RvbjEQMA4GA1UEBwwHU2VhdHRsZTEVMBMG
A1UECgwMd29sZlNTTCBJbmMuMRQwEgYDVQQLDAtFbmdpbmVlcmluZzEdMBsGA1UE
AwwUY2hhaW5HLUlDQTItcGF0aGxlbjExHzAdBgkqhkiG9w0BCQEWEGluZm9Ad29s
ZnNzbC5jb20wggEiMA0GCSqGSIb3DQEBAQUAA4IBDwAwggEKAoIBAQC4lDo1Kk7L
n8BnHUnWvPxOUkNvrhK9QYxdUYoclkX2JIbuwCEKV+DAYLxMIul2ozdkt4+JoJ97
msSNbueV9FBZs7Dr6pQOZhBfZ7CoppQF8o0AXN+mNiV2RMCfpI1WgXB8PFdCHars
YQO3p66wotgXacPZVMNJvlglXFH2nBbgIQSyoCUgGJIdAKqYlovS+bGYqIdb9V8r
xG5q6w5VLwS0BLJGlQMVJgB/89nkb5RUy3DRQ/tNmCXOBMUIIvma7y6WkwGDHzsd
jJzXIaoSa2Lin+hPiLH7v9QfXTme/LSVizA3bS4eh2qRZ38njQMxcChw2h4y5fNi
lc8P1/Es7uKXAgMBAAGjggESMIIBDjAdBgNVHQ4EFgQUIljunJM7ioY8m020T3iT
PJZyZjgwgc4GA1UdIwSBxjCBw4AUuLeJ5zaO0f/qGyeQeMOuWCa8hhmhgaekgaQw
gaExCzAJBgNVBAYTAlVTMRMwEQYDVQQIDApXYXNoaW5ndG9uMRAwDgYDVQQHDAdT
ZWF0dGxlMRUwEwYDVQQKDAx3b2xmU1NMIEluYy4xFDASBgNVBAsMC0VuZ2luZWVy
aW5nMR0wGwYDVQQDDBRjaGFpbkctSUNBNC1wYXRobGVuNTEfMB0GCSqGSIb3DQEJ
ARYQaW5mb0B3b2xmc3NsLmNvbYIBZDAPBgNVHRMECDAGAQH/AgEBMAsGA1UdDwQE
AwIBBjANBgkqhkiG9w0BAQsFAAOCAQEAQrqbBvBdUFpGSHrW/TTShiBnLz6MyiFB
yNQFvzsd6Gdo2+p909mW2z0gBGcEGT+LGcZ/TWdxX3/kwUTN2So+N6p1slUybAiR
lg7Rt/7rmvZ2nNgS5UkTk2gyjcWiuBGchF9oC5aaSfHbFZYsslhy8E2WY9sjgQ4R
Gxza2H/bgGE3CfoV1ti7Bx5mz4C+tF2GEV6RpAsehChGmXgFNq1noaTeOkQIZOZZ
uQmSWrBb2ET4j5AWm+N5FLXL1JdIgzYNGHVUEMl+ifkPxg1uCjMcjSEwLuW6E+3U
YUi2m6Ju2lBwE8D9uc6kICVl6o1i62Y0JB62JhM5LYJi5YnXN5bszA==
-----END CERTIFICATE-----
