Certificate:
    Data:
        Version: 3 (0x2)
        Serial Number: 101 (0x65)
    Signature Algorithm: sha256WithRSAEncryption
        Issuer: C = US, ST = Washington, L = Seattle, O = wolfSSL Inc., OU = Engineering, CN = chainG-ICA1-pathlen0, emailAddress = info@wolfssl.com
        Validity
            Not Before: Jan 29 07:49:16 2021 GMT
            Not After : Oct 26 07:49:16 2023 GMT
        Subject: C = US, ST = Washington, L = Seattle, O = wolfSSL Inc., OU = Engineering, CN = chainG-entity, emailAddress = info@wolfssl.com
        Subject Public Key Info:
            Public Key Algorithm: rsaEncryption
                Public-Key: (2048 bit)
                Modulus:
                    00:c6:6a:80:8d:09:58:b8:f8:f9:8f:e3:80:5e:c9:
                    80:ee:26:5b:e8:07:80:c6:29:70:e2:3b:81:29:09:
                    05:74:18:68:f9:9f:3b:96:11:78:63:0b:61:f7:18:
                    53:a7:eb:f9:92:1d:19:97:a2:4f:4f:3e:69:92:6e:
                    e6:87:a8:fc:3f:c4:be:e8:5e:79:4f:69:5e:57:7f:
                    72:5a:9f:58:56:ea:79:04:44:d9:6f:a8:d7:25:5d:
                    fe:c4:7c:0a:89:f7:72:6a:42:57:c0:58:05:d6:0a:
                    3b:e8:a1:e4:ae:95:9a:a3:0c:d6:2a:26:fd:66:99:
                    01:52:36:94:87:42:83:92:66:ee:35:69:9c:57:f8:
                    a1:7d:b7:42:c2:73:46:ff:5f:f6:60:5e:6a:a3:56:
                    92:94:74:90:cb:c4:6b:4d:44:a1:e8:46:ae:6c:cc:
                    13:fe:a9:68:f2:ab:73:34:71:85:42:5f:60:90:d1:
                    d8:0d:4a:85:17:60:cc:b3:22:af:2e:b9:59:a0:64:
                    3f:3f:fa:36:0a:53:f6:cf:82:dd:5d:ec:d1:a2:27:
                    69:f7:25:35:32:df:85:17:ab:bc:2a:e5:3b:9f:18:
                    ab:d0:07:d1:0b:af:3a:3c:1a:d9:d6:93:68:52:75:
                    1b:4c:fa:fc:86:8c:6b:9d:fd:09:0b:56:03:67:ec:
                    98:df
                Exponent: 65537 (0x10001)
        X509v3 extensions:
            X509v3 Subject Key Identifier: 
                45:A4:DF:10:1E:90:15:77:28:16:15:91:42:0C:EB:98:83:53:06:2D
            X509v3 Authority Key Identifier: 
                keyid:7C:C5:FB:19:F0:D5:F8:BD:88:D1:27:7D:3A:4E:76:50:E1:51:6D:F1
                DirName:/C=US/ST=Washington/L=Seattle/O=wolfSSL Inc./OU=Engineering/CN=chainG-ICA2-pathlen1/emailAddress=info@wolfssl.com
                serial:64

            X509v3 Basic Constraints: 
                CA:FALSE
    Signature Algorithm: sha256WithRSAEncryption
         01:a1:d2:97:57:eb:78:90:e1:86:f0:32:ee:02:f9:4d:90:93:
         76:56:91:f2:21:0c:c1:97:84:84:9b:39:b3:d0:2b:37:cd:72:
         38:57:fb:60:7d:df:e4:81:d6:60:02:d9:bf:db:92:0a:3b:81:
         23:dd:4a:7a:43:c0:c3:cd:89:e7:6d:56:e7:77:f0:07:a3:db:
         c9:4b:ab:12:1a:79:97:03:8f:17:af:05:97:92:c1:f7:7e:10:
         81:06:26:6a:19:a3:00:6e:47:32:6d:3c:eb:66:7a:40:90:96:
         0f:e4:16:54:a2:29:2e:de:cd:18:df:d7:65:c9:3a:6f:28:7f:
         5d:22:18:64:ee:00:a5:09:47:8c:65:34:a7:0b:70:86:f8:4d:
         9d:83:ec:32:a0:11:ac:79:05:e7:b2:6c:f4:9a:50:29:72:c7:
         b1:ef:74:51:af:1e:a8:90:d6:0e:bd:67:de:de:d7:57:3a:33:
         3a:16:ac:cd:99:4d:87:e4:4e:de:5b:ea:cc:60:a2:29:37:42:
         64:a5:e5:bb:0c:65:24:db:ca:b4:07:d5:1b:9b:5c:5b:5e:37:
         3a:35:d4:66:2a:ae:b2:83:2d:c3:da:68:ca:46:df:04:33:a4:
         77:79:ae:e7:e4:71:98:be:b1:5c:d2:49:58:5c:f9:0c:ab:9e:
         ed:c2:e5:32
-----BEGIN CERTIFICATE-----
MIIEtzCCA5+gAwIBAgIBZTANBgkqhkiG9w0BAQsFADCBoTELMAkGA1UEBhMCVVMx
EzARBgNVBAgMCldhc2hpbmd0b24xEDAOBgNVBAcMB1NlYXR0bGUxFTATBgNVBAoM
DHdvbGZTU0wgSW5jLjEUMBIGA1UECwwLRW5naW5lZXJpbmcxHTAbBgNVBAMMFGNo
YWluRy1JQ0ExLXBhdGhsZW4wMR8wHQYJKoZIhvcNAQkBFhBpbmZvQHdvbGZzc2wu
Y29tMB4XDTIxMDEyOTA3NDkxNloXDTIzMTAyNjA3NDkxNlowgZoxCzAJBgNVBAYT
AlVTMRMwEQYDVQQIDApXYXNoaW5ndG9uMRAwDgYDVQQHDAdTZWF0dGxlMRUwEwYD
VQQKDAx3b2xmU1NMIEluYy4xFDASBgNVBAsMC0VuZ2luZWVyaW5nMRYwFAYDVQQD
DA1jaGFpbkctZW50aXR5MR8wHQYJKoZIhvcNAQkBFhBpbmZvQHdvbGZzc2wuY29t
MIIBIjANBgkqhkiG9w0BAQEFAAOCAQ8AMIIBCgKCAQEAxmqAjQlYuPj5j+OAXsmA
7iZb6AeAxilw4juBKQkFdBho+Z87lhF4Ywth9xhTp+v5kh0Zl6JPTz5pkm7mh6j8
P8S+6F55T2leV39yWp9YVup5BETZb6jXJV3+xHwKifdyakJXwFgF1go76KHkrpWa
owzWKib9ZpkBUjaUh0KDkmbuNWmcV/ihfbdCwnNG/1/2YF5qo1aSlHSQy8RrTUSh
6EaubMwT/qlo8qtzNHGFQl9gkNHYDUqFF2DMsyKvLrlZoGQ/P/o2ClP2z4LdXezR
oidp9yU1Mt+FF6u8KuU7nxir0AfRC686PBrZ1pNoUnUbTPr8hoxrnf0JC1YDZ+yY
3wIDAQABo4H+MIH7MB0GA1UdDgQWBBRFpN8QHpAVdygWFZFCDOuYg1MGLTCBzgYD
VR0jBIHGMIHDgBR8xfsZ8NX4vYjRJ306TnZQ4VFt8aGBp6SBpDCBoTELMAkGA1UE
BhMCVVMxEzARBgNVBAgMCldhc2hpbmd0b24xEDAOBgNVBAcMB1NlYXR0bGUxFTAT
BgNVBAoMDHdvbGZTU0wgSW5jLjEUMBIGA1UECwwLRW5naW5lZXJpbmcxHTAbBgNV
BAMMFGNoYWluRy1JQ0EyLXBhdGhsZW4xMR8wHQYJKoZIhvcNAQkBFhBpbmZvQHdv
bGZzc2wuY29tggFkMAkGA1UdEwQCMAAwDQYJKoZIhvcNAQELBQADggEBAAGh0pdX
63iQ4YbwMu4C+U2Qk3ZWkfIhDMGXhISbObPQKzfNcjhX+2B93+SB1mAC2b/bkgo7
gSPdSnpDwMPNiedtVud38Aej28lLqxIaeZcDjxevBZeSwfd+EIEGJmoZowBuRzJt
POtmekCQlg/kFlSiKS7ezRjf12XJOm8of10iGGTuAKUJR4xlNKcLcIb4TZ2D7DKg
Eax5BeeybPSaUClyx7HvdFGvHqiQ1g69Z97e11c6MzoWrM2ZTYfkTt5b6sxgoik3
QmSl5bsMZSTbyrQH1RubXFteNzo11GYqrrKDLcPaaMpG3wQzpHd5rufkcZi+sVzS
SVhc+Qyrnu3C5TI=
-----END CERTIFICATE-----
