Certificate:
    Data:
        Version: 3 (0x2)
        Serial Number: 100 (0x64)
    Signature Algorithm: sha256WithRSAEncryption
        Issuer: C = US, ST = Washington, L = Seattle, O = wolfSSL Inc., OU = Engineering, CN = chainI-ICA3-pathlen2, emailAddress = info@wolfssl.com
        Validity
            Not Before: Jan 29 07:49:18 2021 GMT
            Not After : Oct 26 07:49:18 2023 GMT
        Subject: C = US, ST = Washington, L = Seattle, O = wolfSSL Inc., OU = Engineering, CN = chainI-ICA2-no_pathlen, emailAddress = info@wolfssl.com
        Subject Public Key Info:
            Public Key Algorithm: rsaEncryption
                Public-Key: (2048 bit)
                Modulus:
                    00:f2:6d:25:85:8c:27:d3:4d:d3:c3:85:b0:6e:4a:
                    40:4e:2b:4a:49:33:cd:83:27:5b:a1:e2:fc:45:0c:
                    92:08:07:64:d2:c5:e2:bf:9a:b9:ca:b1:8a:d1:c6:
                    f2:0a:bf:c6:de:2e:98:81:b1:c2:f9:bd:d2:b1:02:
                    d1:aa:c1:ae:88:5c:b3:84:ab:90:a1:e6:67:16:67:
                    6f:55:0f:08:c6:ce:b8:95:07:3a:2a:8f:cb:d2:34:
                    19:25:92:9f:61:8c:65:d0:05:e6:69:8d:f3:76:61:
                    46:b6:7a:9c:29:0b:34:55:44:70:81:65:64:ea:71:
                    a1:83:27:f1:8e:f3:53:bf:16:9f:d1:e0:ad:1b:74:
                    c3:e5:b8:bc:a8:81:5e:a3:20:2c:ea:0c:25:3f:e4:
                    4d:b6:2f:e5:65:d3:6d:08:60:80:45:0c:6b:2c:b4:
                    32:e7:bf:4a:c8:79:d2:fa:a2:24:41:33:a0:cf:81:
                    11:27:19:94:f7:c1:52:e7:f4:be:1c:a1:36:28:af:
                    ce:51:4b:7f:97:7b:e8:ae:6d:bb:c4:4d:5f:7f:14:
                    1e:00:7e:1c:ef:32:fb:75:17:6e:fa:0f:6c:9a:86:
                    0e:22:3f:46:40:a9:bf:fb:72:c4:6b:e0:c5:88:65:
                    83:54:cc:2b:f5:20:88:0a:3f:6c:91:c2:21:06:3c:
                    7d:47
                Exponent: 65537 (0x10001)
        X509v3 extensions:
            X509v3 Subject Key Identifier: 
                59:59:5F:6A:2A:07:1B:3A:78:AE:E7:17:11:B6:4C:C0:F1:E6:A1:D6
            X509v3 Authority Key Identifier: 
                keyid:17:17:C7:65:E5:60:CD:07:01:6C:EB:10:A2:02:15:8D:D3:C5:49:82
                DirName:/C=US/ST=Montana/L=Bozeman/O=Sawtooth/OU=Consulting/CN=www.wolfssl.com/emailAddress=info@wolfssl.com
                serial:64

            X509v3 Basic Constraints: 
                CA:TRUE
            X509v3 Key Usage: 
                Certificate Sign, CRL Sign
    Signature Algorithm: sha256WithRSAEncryption
         41:86:26:cc:8d:aa:f7:13:42:ff:97:88:21:f8:2b:f7:44:e8:
         94:2e:f3:c3:38:d6:38:bd:06:c0:67:42:c7:17:fc:62:96:7e:
         fa:7d:e9:64:8a:e9:23:be:41:f4:a1:59:3f:6f:78:2b:85:8d:
         b9:0d:23:ce:65:63:11:71:2e:8d:a8:c8:d9:3e:a5:c4:33:c2:
         16:ca:5e:07:77:5c:a1:06:75:21:23:19:39:b7:aa:cb:32:a7:
         8c:96:cc:af:33:02:52:ea:ce:10:31:9c:2f:f9:b5:29:dd:4e:
         35:8e:da:ea:ed:6f:27:e0:f7:de:b9:87:dc:aa:78:50:ad:48:
         8e:32:ab:3b:2e:f4:15:6a:bd:23:6b:f1:72:eb:b3:a4:94:f4:
         66:26:9f:d6:d0:9f:42:1d:ae:75:7b:32:4b:2c:6a:eb:5a:ae:
         13:31:c6:f4:6a:7f:c3:d6:fb:50:3f:36:57:d3:a3:00:18:4b:
         4a:11:ae:e2:6f:1e:b9:bc:bc:90:9c:f9:c2:b2:38:c5:0a:e8:
         1e:1d:18:d5:5c:48:39:69:c2:76:f3:5f:ae:c2:58:eb:67:d4:
         0c:7f:c5:bc:9c:e3:b0:35:ce:d6:87:8a:13:be:27:36:cc:4b:
         3d:48:94:fe:8c:2c:98:24:c4:9f:eb:18:23:5d:f3:e1:cf:c6:
         99:75:06:e4
-----BEGIN CERTIFICATE-----
MIIExDCCA6ygAwIBAgIBZDANBgkqhkiG9w0BAQsFADCBoTELMAkGA1UEBhMCVVMx
EzARBgNVBAgMCldhc2hpbmd0b24xEDAOBgNVBAcMB1NlYXR0bGUxFTATBgNVBAoM
DHdvbGZTU0wgSW5jLjEUMBIGA1UECwwLRW5naW5lZXJpbmcxHTAbBgNVBAMMFGNo
YWluSS1JQ0EzLXBhdGhsZW4yMR8wHQYJKoZIhvcNAQkBFhBpbmZvQHdvbGZzc2wu
Y29tMB4XDTIxMDEyOTA3NDkxOFoXDTIzMTAyNjA3NDkxOFowgaMxCzAJBgNVBAYT
AlVTMRMwEQYDVQQIDApXYXNoaW5ndG9uMRAwDgYDVQQHDAdTZWF0dGxlMRUwEwYD
VQQKDAx3b2xmU1NMIEluYy4xFDASBgNVBAsMC0VuZ2luZWVyaW5nMR8wHQYDVQQD
DBZjaGFpbkktSUNBMi1ub19wYXRobGVuMR8wHQYJKoZIhvcNAQkBFhBpbmZvQHdv
bGZzc2wuY29tMIIBIjANBgkqhkiG9w0BAQEFAAOCAQ8AMIIBCgKCAQEA8m0lhYwn
003Tw4WwbkpATitKSTPNgydboeL8RQySCAdk0sXiv5q5yrGK0cbyCr/G3i6YgbHC
+b3SsQLRqsGuiFyzhKuQoeZnFmdvVQ8Ixs64lQc6Ko/L0jQZJZKfYYxl0AXmaY3z
dmFGtnqcKQs0VURwgWVk6nGhgyfxjvNTvxaf0eCtG3TD5bi8qIFeoyAs6gwlP+RN
ti/lZdNtCGCARQxrLLQy579KyHnS+qIkQTOgz4ERJxmU98FS5/S+HKE2KK/OUUt/
l3vorm27xE1ffxQeAH4c7zL7dRdu+g9smoYOIj9GQKm/+3LEa+DFiGWDVMwr9SCI
Cj9skcIhBjx9RwIDAQABo4IBATCB/jAdBgNVHQ4EFgQUWVlfaioHGzp4rucXEbZM
wPHmodYwgcEGA1UdIwSBuTCBtoAUFxfHZeVgzQcBbOsQogIVjdPFSYKhgZqkgZcw
gZQxCzAJBgNVBAYTAlVTMRAwDgYDVQQIDAdNb250YW5hMRAwDgYDVQQHDAdCb3pl
bWFuMREwDwYDVQQKDAhTYXd0b290aDETMBEGA1UECwwKQ29uc3VsdGluZzEYMBYG
A1UEAwwPd3d3LndvbGZzc2wuY29tMR8wHQYJKoZIhvcNAQkBFhBpbmZvQHdvbGZz
c2wuY29tggFkMAwGA1UdEwQFMAMBAf8wCwYDVR0PBAQDAgEGMA0GCSqGSIb3DQEB
CwUAA4IBAQBBhibMjar3E0L/l4gh+Cv3ROiULvPDONY4vQbAZ0LHF/xiln76felk
iukjvkH0oVk/b3grhY25DSPOZWMRcS6NqMjZPqXEM8IWyl4Hd1yhBnUhIxk5t6rL
MqeMlsyvMwJS6s4QMZwv+bUp3U41jtrq7W8n4PfeuYfcqnhQrUiOMqs7LvQVar0j
a/Fy67OklPRmJp/W0J9CHa51ezJLLGrrWq4TMcb0an/D1vtQPzZX06MAGEtKEa7i
bx65vLyQnPnCsjjFCugeHRjVXEg5acJ281+uwljrZ9QMf8W8nOOwNc7Wh4oTvic2
zEs9SJT+jCyYJMSf6xgjXfPhz8aZdQbk
-----END CERTIFICATE-----
