Certificate:
    Data:
        Version: 3 (0x2)
        Serial Number: 100 (0x64)
    Signature Algorithm: sha256WithRSAEncryption
        Issuer: C = US, ST = Montana, L = Bozeman, O = Sawtooth, OU = Consulting, CN = www.wolfssl.com, emailAddress = info@wolfssl.com
        Validity
            Not Before: Jan 29 07:49:13 2021 GMT
            Not After : Oct 26 07:49:13 2023 GMT
        Subject: C = US, ST = Washington, L = Seattle, O = wolfSSL Inc., OU = Engineering, CN = chainD-ICA1-pathlen127, emailAddress = info@wolfssl.com
        Subject Public Key Info:
            Public Key Algorithm: rsaEncryption
                Public-Key: (2048 bit)
                Modulus:
                    00:d1:71:1c:d3:1f:a1:0e:a2:08:1d:78:f3:ce:59:
                    2b:4b:9a:84:2e:b3:04:23:d3:20:b9:e1:0a:d1:dc:
                    6b:1d:fd:95:eb:1d:ca:e1:8d:60:11:ec:04:01:fe:
                    bb:0f:f5:fd:2c:06:b1:f1:8e:bd:d0:0f:9c:17:2a:
                    92:aa:56:50:d7:f8:15:43:b4:db:5d:8f:23:e5:b1:
                    03:66:27:cc:63:b3:e3:a4:e3:61:2d:e4:6e:07:5a:
                    6f:5e:79:61:61:85:aa:a2:ba:9b:a4:c3:38:0d:47:
                    88:d6:60:0f:6c:de:bb:40:0d:75:37:00:03:57:92:
                    fa:d5:34:96:33:de:d1:ec:56:0b:f4:e5:21:b7:f6:
                    20:c2:9f:72:1c:24:ed:ee:db:a3:f9:93:d0:b9:83:
                    80:84:aa:97:00:68:74:ea:71:4a:dd:52:17:91:6f:
                    77:b7:30:55:eb:18:d8:df:4c:21:a0:1b:23:1e:d7:
                    99:b3:02:3d:93:51:69:21:2a:10:75:aa:f4:f3:13:
                    ad:e2:82:82:e9:0f:10:86:ca:34:fd:05:77:65:42:
                    c7:b5:5e:96:f8:f5:aa:85:4a:8a:d3:b9:c0:62:53:
                    31:4e:99:93:6c:80:b5:99:8e:60:ff:0d:b1:f9:37:
                    19:f9:3a:9a:76:74:11:a8:4f:82:16:57:c3:e3:55:
                    96:19
                Exponent: 65537 (0x10001)
        X509v3 extensions:
            X509v3 Subject Key Identifier: 
                F6:FA:EA:B8:BE:7F:88:E3:18:80:5E:F4:A3:C8:03:22:9A:A4:84:BC
            X509v3 Authority Key Identifier: 
                keyid:27:8E:67:11:74:C3:26:1D:3F:ED:33:63:B3:A4:D8:1D:30:E5:E8:D5
                DirName:/C=US/ST=Montana/L=Bozeman/O=Sawtooth/OU=Consulting/CN=www.wolfssl.com/emailAddress=info@wolfssl.com
                serial:5E:BA:A4:F4:B1:F7:48:25:E3:5F:9B:DA:A1:13:ED:D5:2B:03:67:15

            X509v3 Basic Constraints: 
                CA:TRUE, pathlen:127
            X509v3 Key Usage: 
                Certificate Sign, CRL Sign
    Signature Algorithm: sha256WithRSAEncryption
         1a:36:18:0b:e5:30:d7:8e:21:b6:09:a9:5f:8a:a8:27:aa:1f:
         99:91:b3:91:8d:75:45:00:54:84:16:56:43:d5:d8:92:50:1e:
         07:c9:d5:2d:5d:c0:02:05:38:a4:23:c0:ab:6e:d7:66:fa:b8:
         85:1f:2a:5e:ad:d2:4e:e0:ea:c3:d1:9a:d0:c7:c5:0e:77:24:
         1f:14:6a:22:4e:60:ef:99:80:80:0a:26:12:36:69:46:97:fa:
         09:47:e8:3c:6e:7b:e7:48:33:f7:49:e8:a7:ee:25:67:79:84:
         f8:08:8b:af:44:8e:66:e1:c2:cf:81:72:9e:6a:92:8e:11:f3:
         c7:3d:ce:9d:8c:92:8d:ce:23:ad:9e:44:26:12:8b:ad:34:4b:
         01:ea:b8:4f:78:78:46:f6:0c:57:94:6f:01:0f:d0:69:9c:b3:
         65:05:cf:d5:7d:d2:86:2f:03:59:f4:0a:69:d1:6f:fc:53:ae:
         f7:63:b9:0e:33:aa:2f:f4:81:49:fe:5a:2c:43:8d:90:47:6b:
         08:8a:6f:cb:fd:0a:e8:34:14:e5:0c:54:d9:1d:a3:47:e5:a5:
         a6:67:ae:cb:1b:d0:7e:38:90:2e:8f:fa:56:1a:45:38:67:30:
         10:d4:33:fc:75:e5:9b:f3:1a:1e:3c:85:06:40:8b:f8:59:2d:
         ef:6c:d7:69
-----BEGIN CERTIFICATE-----
MIIEzjCCA7agAwIBAgIBZDANBgkqhkiG9w0BAQsFADCBlDELMAkGA1UEBhMCVVMx
EDAOBgNVBAgMB01vbnRhbmExEDAOBgNVBAcMB0JvemVtYW4xETAPBgNVBAoMCFNh
d3Rvb3RoMRMwEQYDVQQLDApDb25zdWx0aW5nMRgwFgYDVQQDDA93d3cud29sZnNz
bC5jb20xHzAdBgkqhkiG9w0BCQEWEGluZm9Ad29sZnNzbC5jb20wHhcNMjEwMTI5
MDc0OTEzWhcNMjMxMDI2MDc0OTEzWjCBozELMAkGA1UEBhMCVVMxEzARBgNVBAgM
Cldhc2hpbmd0b24xEDAOBgNVBAcMB1NlYXR0bGUxFTATBgNVBAoMDHdvbGZTU0wg
SW5jLjEUMBIGA1UECwwLRW5naW5lZXJpbmcxHzAdBgNVBAMMFmNoYWluRC1JQ0Ex
LXBhdGhsZW4xMjcxHzAdBgkqhkiG9w0BCQEWEGluZm9Ad29sZnNzbC5jb20wggEi
MA0GCSqGSIb3DQEBAQUAA4IBDwAwggEKAoIBAQDRcRzTH6EOoggdePPOWStLmoQu
swQj0yC54QrR3Gsd/ZXrHcrhjWAR7AQB/rsP9f0sBrHxjr3QD5wXKpKqVlDX+BVD
tNtdjyPlsQNmJ8xjs+Ok42Et5G4HWm9eeWFhhaqiupukwzgNR4jWYA9s3rtADXU3
AANXkvrVNJYz3tHsVgv05SG39iDCn3IcJO3u26P5k9C5g4CEqpcAaHTqcUrdUheR
b3e3MFXrGNjfTCGgGyMe15mzAj2TUWkhKhB1qvTzE63igoLpDxCGyjT9BXdlQse1
Xpb49aqFSorTucBiUzFOmZNsgLWZjmD/DbH5Nxn5Opp2dBGoT4IWV8PjVZYZAgMB
AAGjggEYMIIBFDAdBgNVHQ4EFgQU9vrquL5/iOMYgF70o8gDIpqkhLwwgdQGA1Ud
IwSBzDCByYAUJ45nEXTDJh0/7TNjs6TYHTDl6NWhgZqkgZcwgZQxCzAJBgNVBAYT
AlVTMRAwDgYDVQQIDAdNb250YW5hMRAwDgYDVQQHDAdCb3plbWFuMREwDwYDVQQK
DAhTYXd0b290aDETMBEGA1UECwwKQ29uc3VsdGluZzEYMBYGA1UEAwwPd3d3Lndv
bGZzc2wuY29tMR8wHQYJKoZIhvcNAQkBFhBpbmZvQHdvbGZzc2wuY29tghReuqT0
sfdIJeNfm9qhE+3VKwNnFTAPBgNVHRMECDAGAQH/AgF/MAsGA1UdDwQEAwIBBjAN
BgkqhkiG9w0BAQsFAAOCAQEAGjYYC+Uw144htgmpX4qoJ6ofmZGzkY11RQBUhBZW
Q9XYklAeB8nVLV3AAgU4pCPAq27XZvq4hR8qXq3STuDqw9Ga0MfFDnckHxRqIk5g
75mAgAomEjZpRpf6CUfoPG5750gz90nop+4lZ3mE+AiLr0SOZuHCz4FynmqSjhHz
xz3OnYySjc4jrZ5EJhKLrTRLAeq4T3h4RvYMV5RvAQ/QaZyzZQXP1X3Shi8DWfQK
adFv/FOu92O5DjOqL/SBSf5aLEONkEdrCIpvy/0K6DQU5QxU2R2jR+WlpmeuyxvQ
fjiQLo/6VhpFOGcwENQz/HXlm/MaHjyFBkCL+Fkt72zXaQ==
-----END CERTIFICATE-----
