Certificate:
    Data:
        Version: 3 (0x2)
        Serial Number: 101 (0x65)
    Signature Algorithm: sha256WithRSAEncryption
        Issuer: C = US, ST = Washington, L = Seattle, O = wolfSSL Inc., OU = Engineering, CN = chainB-ICA1-pathlen0, emailAddress = info@wolfssl.com
        Validity
            Not Before: Jan 29 07:49:12 2021 GMT
            Not After : Oct 26 07:49:12 2023 GMT
        Subject: C = US, ST = Washington, L = Seattle, O = wolfSSL Inc., OU = Engineering, CN = chainB-entity, emailAddress = info@wolfssl.com
        Subject Public Key Info:
            Public Key Algorithm: rsaEncryption
                Public-Key: (2048 bit)
                Modulus:
                    00:a6:ee:71:7b:73:ea:95:79:b6:86:27:91:c9:33:
                    66:80:3b:82:cd:78:1d:b9:57:d5:d3:d1:e5:07:7c:
                    c8:92:f7:f1:37:44:5b:9c:54:b1:19:e4:cd:a3:54:
                    5a:24:9c:9f:40:71:83:3e:be:41:08:cc:c4:7f:b4:
                    80:b1:92:f8:e3:25:41:0c:df:e4:55:48:a9:39:6d:
                    48:d8:7a:19:4b:ce:27:bc:be:47:93:b6:d4:d1:ab:
                    b9:e7:40:f5:aa:ec:89:54:d9:84:fe:b5:64:ef:29:
                    e6:55:ab:53:de:d9:4a:cd:5f:7f:e9:bc:70:97:ae:
                    dc:ad:16:5c:78:89:dc:34:87:65:33:f1:52:cf:f9:
                    23:09:9e:3f:b3:20:f2:e8:7b:c9:94:ba:b0:db:47:
                    18:de:d0:48:a2:40:da:12:0d:5a:61:45:ab:27:18:
                    ab:32:08:41:df:1b:4b:4f:60:bc:7c:0f:67:66:4c:
                    fd:c5:7e:dd:53:29:c1:ff:7f:77:d7:f4:4b:3f:79:
                    60:b5:55:4a:2b:54:df:90:4b:d5:46:e3:ae:99:3e:
                    ad:33:b7:6f:4e:ff:8f:33:19:65:e5:dd:92:d8:35:
                    1e:38:71:d5:46:2b:8b:29:2f:d3:37:b8:43:8e:3f:
                    50:c3:43:2c:4a:24:4d:ae:b6:9d:d2:73:4c:23:af:
                    69:85
                Exponent: 65537 (0x10001)
        X509v3 extensions:
            X509v3 Subject Key Identifier: 
                8E:87:45:56:61:10:76:AF:D5:38:2F:E7:A5:CC:1D:26:74:69:64:BA
            X509v3 Authority Key Identifier: 
                keyid:0F:F6:C4:1C:E2:8A:76:95:E0:A5:01:F7:B8:F2:35:51:94:5E:47:35
                DirName:/C=US/ST=Washington/L=Seattle/O=wolfSSL Inc./OU=Engineering/CN=chainB-ICA2-pathlen1/emailAddress=info@wolfssl.com
                serial:64

            X509v3 Basic Constraints: 
                CA:FALSE
    Signature Algorithm: sha256WithRSAEncryption
         66:79:82:bb:31:f4:28:1f:1a:56:a4:b8:a7:7f:a9:9f:76:3e:
         69:1a:b2:3f:16:4d:9a:5c:c5:01:39:d2:64:85:9f:4a:74:91:
         af:f3:e5:1d:76:12:eb:e6:2e:05:ca:d8:60:9b:44:2f:36:2b:
         15:af:ce:66:5f:ee:45:f5:fe:76:89:02:3b:7f:a1:d0:91:2e:
         72:c2:17:49:01:b6:0a:c1:4b:0b:b2:9d:96:44:4c:d9:d9:21:
         ab:4f:d7:63:78:29:cf:79:b5:76:22:f8:b5:e0:3a:9e:1a:58:
         05:6f:d5:f5:4a:29:3b:d2:52:fd:20:a8:d4:6a:d1:23:71:83:
         eb:8b:2c:16:fc:46:9f:66:9a:d3:00:6f:6c:b1:3c:43:9e:80:
         13:2b:04:55:e6:bf:bb:4d:5e:8b:36:1a:f2:66:78:05:28:18:
         36:59:9f:23:00:84:c3:bb:cb:73:ab:74:25:65:3d:c4:23:47:
         bd:e8:1a:f2:8a:6b:97:77:7e:36:f5:3b:fe:61:97:99:7a:84:
         35:8e:ab:f0:2f:f0:6d:58:5f:a3:11:d4:d0:9d:83:40:6d:26:
         00:1f:7c:a8:9a:50:18:84:41:51:cd:51:89:24:32:9a:68:48:
         38:bd:bc:54:39:66:53:61:07:9c:7b:ca:89:bc:fe:ca:a7:00:
         72:d4:cb:f9
-----BEGIN CERTIFICATE-----
MIIEtzCCA5+gAwIBAgIBZTANBgkqhkiG9w0BAQsFADCBoTELMAkGA1UEBhMCVVMx
EzARBgNVBAgMCldhc2hpbmd0b24xEDAOBgNVBAcMB1NlYXR0bGUxFTATBgNVBAoM
DHdvbGZTU0wgSW5jLjEUMBIGA1UECwwLRW5naW5lZXJpbmcxHTAbBgNVBAMMFGNo
YWluQi1JQ0ExLXBhdGhsZW4wMR8wHQYJKoZIhvcNAQkBFhBpbmZvQHdvbGZzc2wu
Y29tMB4XDTIxMDEyOTA3NDkxMloXDTIzMTAyNjA3NDkxMlowgZoxCzAJBgNVBAYT
AlVTMRMwEQYDVQQIDApXYXNoaW5ndG9uMRAwDgYDVQQHDAdTZWF0dGxlMRUwEwYD
VQQKDAx3b2xmU1NMIEluYy4xFDASBgNVBAsMC0VuZ2luZWVyaW5nMRYwFAYDVQQD
DA1jaGFpbkItZW50aXR5MR8wHQYJKoZIhvcNAQkBFhBpbmZvQHdvbGZzc2wuY29t
MIIBIjANBgkqhkiG9w0BAQEFAAOCAQ8AMIIBCgKCAQEApu5xe3PqlXm2hieRyTNm
gDuCzXgduVfV09HlB3zIkvfxN0RbnFSxGeTNo1RaJJyfQHGDPr5BCMzEf7SAsZL4
4yVBDN/kVUipOW1I2HoZS84nvL5Hk7bU0au550D1quyJVNmE/rVk7ynmVatT3tlK
zV9/6bxwl67crRZceIncNIdlM/FSz/kjCZ4/syDy6HvJlLqw20cY3tBIokDaEg1a
YUWrJxirMghB3xtLT2C8fA9nZkz9xX7dUynB/3931/RLP3lgtVVKK1TfkEvVRuOu
mT6tM7dvTv+PMxll5d2S2DUeOHHVRiuLKS/TN7hDjj9Qw0MsSiRNrrad0nNMI69p
hQIDAQABo4H+MIH7MB0GA1UdDgQWBBSOh0VWYRB2r9U4L+elzB0mdGlkujCBzgYD
VR0jBIHGMIHDgBQP9sQc4op2leClAfe48jVRlF5HNaGBp6SBpDCBoTELMAkGA1UE
BhMCVVMxEzARBgNVBAgMCldhc2hpbmd0b24xEDAOBgNVBAcMB1NlYXR0bGUxFTAT
BgNVBAoMDHdvbGZTU0wgSW5jLjEUMBIGA1UECwwLRW5naW5lZXJpbmcxHTAbBgNV
BAMMFGNoYWluQi1JQ0EyLXBhdGhsZW4xMR8wHQYJKoZIhvcNAQkBFhBpbmZvQHdv
bGZzc2wuY29tggFkMAkGA1UdEwQCMAAwDQYJKoZIhvcNAQELBQADggEBAGZ5grsx
9CgfGlakuKd/qZ92Pmkasj8WTZpcxQE50mSFn0p0ka/z5R12EuvmLgXK2GCbRC82
KxWvzmZf7kX1/naJAjt/odCRLnLCF0kBtgrBSwuynZZETNnZIatP12N4Kc95tXYi
+LXgOp4aWAVv1fVKKTvSUv0gqNRq0SNxg+uLLBb8Rp9mmtMAb2yxPEOegBMrBFXm
v7tNXos2GvJmeAUoGDZZnyMAhMO7y3OrdCVlPcQjR73oGvKKa5d3fjb1O/5hl5l6
hDWOq/Av8G1YX6MR1NCdg0BtJgAffKiaUBiEQVHNUYkkMppoSDi9vFQ5ZlNhB5x7
yom8/sqnAHLUy/k=
-----END CERTIFICATE-----
Certificate:
    Data:
        Version: 3 (0x2)
        Serial Number: 100 (0x64)
    Signature Algorithm: sha256WithRSAEncryption
        Issuer: C = US, ST = Washington, L = Seattle, O = wolfSSL Inc., OU = Engineering, CN = chainB-ICA2-pathlen1, emailAddress = info@wolfssl.com
        Validity
            Not Before: Jan 29 07:49:12 2021 GMT
            Not After : Oct 26 07:49:12 2023 GMT
        Subject: C = US, ST = Washington, L = Seattle, O = wolfSSL Inc., OU = Engineering, CN = chainB-ICA1-pathlen0, emailAddress = info@wolfssl.com
        Subject Public Key Info:
            Public Key Algorithm: rsaEncryption
                Public-Key: (2048 bit)
                Modulus:
                    00:b8:23:9d:d6:7f:62:85:52:9b:d6:e6:d0:45:70:
                    d7:1f:3a:8e:68:ea:48:93:0e:27:dc:27:41:be:0a:
                    26:ed:ba:ab:6a:de:3d:94:18:61:76:32:51:f3:e5:
                    c8:c3:19:9f:62:e6:72:c2:f1:4b:5b:09:11:05:e8:
                    27:85:6e:0b:b8:23:bd:91:40:af:24:8b:9f:09:5a:
                    4d:ff:93:3f:75:d2:48:82:16:f8:5c:ba:3f:06:4d:
                    5b:3d:2c:b0:c9:f6:24:be:d2:69:7d:70:66:e7:c5:
                    34:3d:51:d5:26:51:f9:fa:85:2a:42:1d:7e:69:eb:
                    bf:e8:cb:48:b7:37:4b:d3:d8:d5:f8:fa:e5:80:52:
                    81:23:a7:29:d8:93:59:dc:a3:b7:d6:94:cb:36:fa:
                    a3:e0:a1:e4:b6:3f:51:af:30:ae:cb:93:cb:e3:9c:
                    3e:2f:d2:4e:ae:58:25:cc:ab:a9:da:7c:c5:29:3e:
                    5d:52:23:a7:c6:5e:12:4d:eb:fd:5f:9b:fe:56:cf:
                    29:36:dc:70:3b:5d:80:4c:08:1a:01:43:56:bc:14:
                    5b:1f:02:26:e3:af:74:2a:b2:a7:c4:2f:62:51:2b:
                    64:7c:16:f3:7e:8c:d4:56:53:ac:57:d7:5d:07:c5:
                    a4:fc:19:6a:58:63:51:01:29:1a:f3:84:7d:b1:1d:
                    a5:1f
                Exponent: 65537 (0x10001)
        X509v3 extensions:
            X509v3 Subject Key Identifier: 
                0F:F6:C4:1C:E2:8A:76:95:E0:A5:01:F7:B8:F2:35:51:94:5E:47:35
            X509v3 Authority Key Identifier: 
                keyid:0F:4B:23:88:67:CB:FE:E6:91:B2:18:F6:12:59:F2:56:D0:2C:38:16
                DirName:/C=US/ST=Montana/L=Bozeman/O=Sawtooth/OU=Consulting/CN=www.wolfssl.com/emailAddress=info@wolfssl.com
                serial:64

            X509v3 Basic Constraints: 
                CA:TRUE, pathlen:0
            X509v3 Key Usage: 
                Certificate Sign, CRL Sign
    Signature Algorithm: sha256WithRSAEncryption
         22:c3:e6:ce:9b:53:2d:de:e2:90:fb:00:40:b3:03:e2:6b:c0:
         f6:93:ad:9a:06:3b:c4:b3:64:fc:aa:5e:39:45:2e:c5:53:99:
         19:43:ec:64:5f:0a:1e:3d:1d:ec:99:c0:6a:95:4e:cc:77:eb:
         0e:b9:dc:03:73:ba:88:9a:5a:0e:99:74:46:75:49:49:48:8d:
         ca:42:70:f8:b3:b2:f6:a0:2a:fb:17:98:6e:b1:af:9a:4a:95:
         94:dc:c1:7d:8c:80:4f:9c:ec:5a:c5:17:11:a6:c6:ef:56:1d:
         22:d0:1d:15:75:34:4a:68:72:2b:a0:30:c7:86:d9:f8:ae:9e:
         a9:cd:24:0f:69:02:81:a8:d6:c4:6c:64:78:41:ad:14:6f:89:
         4b:a2:e9:fc:8a:44:2a:d8:87:22:88:39:e3:3d:89:25:ea:76:
         a0:9d:ee:c6:3e:44:02:0e:34:66:38:c0:9c:09:2b:40:61:1b:
         aa:75:81:bd:b4:1b:e7:77:f7:59:b2:be:03:1a:4a:4e:f5:70:
         c8:c8:c3:24:81:6a:97:2b:ee:b6:50:d7:72:84:a8:f3:e6:c6:
         02:42:64:5f:75:28:5a:ea:36:52:28:eb:38:3a:d9:b6:de:79:
         c7:94:3c:bc:a1:c6:c9:32:cc:02:e2:3f:d1:63:a3:e1:a2:86:
         c4:58:5e:25
-----BEGIN CERTIFICATE-----
MIIExjCCA66gAwIBAgIBZDANBgkqhkiG9w0BAQsFADCBoTELMAkGA1UEBhMCVVMx
EzARBgNVBAgMCldhc2hpbmd0b24xEDAOBgNVBAcMB1NlYXR0bGUxFTATBgNVBAoM
DHdvbGZTU0wgSW5jLjEUMBIGA1UECwwLRW5naW5lZXJpbmcxHTAbBgNVBAMMFGNo
YWluQi1JQ0EyLXBhdGhsZW4xMR8wHQYJKoZIhvcNAQkBFhBpbmZvQHdvbGZzc2wu
Y29tMB4XDTIxMDEyOTA3NDkxMloXDTIzMTAyNjA3NDkxMlowgaExCzAJBgNVBAYT
AlVTMRMwEQYDVQQIDApXYXNoaW5ndG9uMRAwDgYDVQQHDAdTZWF0dGxlMRUwEwYD
VQQKDAx3b2xmU1NMIEluYy4xFDASBgNVBAsMC0VuZ2luZWVyaW5nMR0wGwYDVQQD
DBRjaGFpbkItSUNBMS1wYXRobGVuMDEfMB0GCSqGSIb3DQEJARYQaW5mb0B3b2xm
c3NsLmNvbTCCASIwDQYJKoZIhvcNAQEBBQADggEPADCCAQoCggEBALgjndZ/YoVS
m9bm0EVw1x86jmjqSJMOJ9wnQb4KJu26q2rePZQYYXYyUfPlyMMZn2LmcsLxS1sJ
EQXoJ4VuC7gjvZFArySLnwlaTf+TP3XSSIIW+Fy6PwZNWz0ssMn2JL7SaX1wZufF
ND1R1SZR+fqFKkIdfmnrv+jLSLc3S9PY1fj65YBSgSOnKdiTWdyjt9aUyzb6o+Ch
5LY/Ua8wrsuTy+OcPi/STq5YJcyrqdp8xSk+XVIjp8ZeEk3r/V+b/lbPKTbccDtd
gEwIGgFDVrwUWx8CJuOvdCqyp8QvYlErZHwW836M1FZTrFfXXQfFpPwZalhjUQEp
GvOEfbEdpR8CAwEAAaOCAQUwggEBMB0GA1UdDgQWBBQP9sQc4op2leClAfe48jVR
lF5HNTCBwQYDVR0jBIG5MIG2gBQPSyOIZ8v+5pGyGPYSWfJW0Cw4FqGBmqSBlzCB
lDELMAkGA1UEBhMCVVMxEDAOBgNVBAgMB01vbnRhbmExEDAOBgNVBAcMB0JvemVt
YW4xETAPBgNVBAoMCFNhd3Rvb3RoMRMwEQYDVQQLDApDb25zdWx0aW5nMRgwFgYD
VQQDDA93d3cud29sZnNzbC5jb20xHzAdBgkqhkiG9w0BCQEWEGluZm9Ad29sZnNz
bC5jb22CAWQwDwYDVR0TBAgwBgEB/wIBADALBgNVHQ8EBAMCAQYwDQYJKoZIhvcN
AQELBQADggEBACLD5s6bUy3e4pD7AECzA+JrwPaTrZoGO8SzZPyqXjlFLsVTmRlD
7GRfCh49HeyZwGqVTsx36w653ANzuoiaWg6ZdEZ1SUlIjcpCcPizsvagKvsXmG6x
r5pKlZTcwX2MgE+c7FrFFxGmxu9WHSLQHRV1NEpociugMMeG2fiunqnNJA9pAoGo
1sRsZHhBrRRviUui6fyKRCrYhyKIOeM9iSXqdqCd7sY+RAIONGY4wJwJK0BhG6p1
gb20G+d391myvgMaSk71cMjIwySBapcr7rZQ13KEqPPmxgJCZF91KFrqNlIo6zg6
2bbeeceUPLyhxskyzALiP9Fjo+GihsRYXiU=
-----END CERTIFICATE-----
Certificate:
    Data:
        Version: 3 (0x2)
        Serial Number: 100 (0x64)
    Signature Algorithm: sha256WithRSAEncryption
        Issuer: C = US, ST = Montana, L = Bozeman, O = Sawtooth, OU = Consulting, CN = www.wolfssl.com, emailAddress = info@wolfssl.com
        Validity
            Not Before: Jan 29 07:49:12 2021 GMT
            Not After : Oct 26 07:49:12 2023 GMT
        Subject: C = US, ST = Washington, L = Seattle, O = wolfSSL Inc., OU = Engineering, CN = chainB-ICA2-pathlen1, emailAddress = info@wolfssl.com
        Subject Public Key Info:
            Public Key Algorithm: rsaEncryption
                Public-Key: (2048 bit)
                Modulus:
                    00:cc:74:9c:8d:82:29:ae:9f:48:b7:65:6f:a7:56:
                    ee:b3:b1:0e:2c:78:d7:ca:32:a0:df:44:bc:31:dc:
                    a0:aa:76:7d:e8:53:63:06:37:7c:0a:5d:7c:33:d7:
                    42:d8:3a:d2:b4:f7:15:b7:f2:27:35:53:f0:c7:0d:
                    42:14:6f:67:f5:f4:ca:55:c7:60:83:93:c9:cd:96:
                    8a:a3:4c:e1:ae:73:4e:35:f9:e8:04:9c:4f:cd:17:
                    5f:f1:ab:1f:6e:65:cf:15:78:7c:cd:fb:89:28:69:
                    74:8b:dd:17:6e:01:ea:73:48:e2:e1:8a:57:a0:2e:
                    6f:04:84:55:06:50:38:78:6e:3c:c8:7f:2c:d3:09:
                    92:d2:8b:04:f3:03:03:e2:a1:05:17:7c:7a:4e:68:
                    ae:6a:5a:04:6a:79:b2:d5:92:93:c0:ad:04:1c:da:
                    41:af:1a:27:b4:8f:e9:05:0b:46:86:72:31:1b:4f:
                    31:f8:2e:3b:99:2c:67:ac:db:0e:de:85:64:bb:12:
                    40:64:d4:f3:b3:50:52:da:ee:95:fb:51:b0:59:f3:
                    b2:be:39:d6:f1:af:e1:ad:28:74:a7:18:d5:fe:dc:
                    5f:c9:30:70:ea:3c:4b:2c:19:65:37:4c:30:b4:76:
                    18:2e:97:f7:6f:71:0c:69:30:49:3a:61:68:80:c8:
                    bd:2d
                Exponent: 65537 (0x10001)
        X509v3 extensions:
            X509v3 Subject Key Identifier: 
                0F:4B:23:88:67:CB:FE:E6:91:B2:18:F6:12:59:F2:56:D0:2C:38:16
            X509v3 Authority Key Identifier: 
                keyid:27:8E:67:11:74:C3:26:1D:3F:ED:33:63:B3:A4:D8:1D:30:E5:E8:D5
                DirName:/C=US/ST=Montana/L=Bozeman/O=Sawtooth/OU=Consulting/CN=www.wolfssl.com/emailAddress=info@wolfssl.com
                serial:5E:BA:A4:F4:B1:F7:48:25:E3:5F:9B:DA:A1:13:ED:D5:2B:03:67:15

            X509v3 Basic Constraints: 
                CA:TRUE, pathlen:1
            X509v3 Key Usage: 
                Certificate Sign, CRL Sign
    Signature Algorithm: sha256WithRSAEncryption
         04:28:a2:7a:ee:8a:83:cf:08:26:e2:3b:92:f7:c8:74:e5:d9:
         e2:6f:cc:d8:9f:4e:ad:96:85:0e:a4:fe:ac:40:eb:11:df:60:
         f5:1a:ad:d0:a9:76:97:0d:fb:45:3e:34:21:cf:bc:24:e9:fc:
         6e:2b:36:ec:21:ba:58:25:d9:cc:07:90:c0:34:0b:43:91:8a:
         87:84:ca:95:30:39:ef:90:6a:f3:03:58:6f:c7:66:04:79:ef:
         a7:0b:c8:db:eb:89:fe:1b:c9:77:25:e6:b1:2e:0f:c4:89:2b:
         4f:75:86:66:c3:53:7e:94:b7:8f:bd:78:f1:1b:8f:8b:4e:ac:
         59:2d:70:19:c6:cd:32:5d:6f:e5:1f:27:65:b4:ec:66:e4:c2:
         f2:42:f3:79:31:3c:c5:07:7b:50:26:0c:d1:ed:af:ea:91:1f:
         1a:b6:90:16:4b:30:70:2e:ea:40:43:ba:38:38:fa:1f:79:af:
         9e:80:10:bf:b9:b6:88:cb:c7:9e:7f:a2:ae:a6:af:53:75:b3:
         9a:17:04:3d:67:1f:6e:f1:f1:1d:04:03:91:5e:32:dd:2a:1f:
         0a:46:08:e3:bb:10:9b:9a:18:ff:f0:33:46:7c:1e:30:f0:56:
         6c:e6:de:96:d6:56:f9:00:f2:35:f1:7f:a0:bf:98:84:46:5d:
         7b:c7:d5:0f
-----BEGIN CERTIFICATE-----
MIIEzDCCA7SgAwIBAgIBZDANBgkqhkiG9w0BAQsFADCBlDELMAkGA1UEBhMCVVMx
EDAOBgNVBAgMB01vbnRhbmExEDAOBgNVBAcMB0JvemVtYW4xETAPBgNVBAoMCFNh
d3Rvb3RoMRMwEQYDVQQLDApDb25zdWx0aW5nMRgwFgYDVQQDDA93d3cud29sZnNz
bC5jb20xHzAdBgkqhkiG9w0BCQEWEGluZm9Ad29sZnNzbC5jb20wHhcNMjEwMTI5
MDc0OTEyWhcNMjMxMDI2MDc0OTEyWjCBoTELMAkGA1UEBhMCVVMxEzARBgNVBAgM
Cldhc2hpbmd0b24xEDAOBgNVBAcMB1NlYXR0bGUxFTATBgNVBAoMDHdvbGZTU0wg
SW5jLjEUMBIGA1UECwwLRW5naW5lZXJpbmcxHTAbBgNVBAMMFGNoYWluQi1JQ0Ey
LXBhdGhsZW4xMR8wHQYJKoZIhvcNAQkBFhBpbmZvQHdvbGZzc2wuY29tMIIBIjAN
BgkqhkiG9w0BAQEFAAOCAQ8AMIIBCgKCAQEAzHScjYIprp9It2Vvp1bus7EOLHjX
yjKg30S8MdygqnZ96FNjBjd8Cl18M9dC2DrStPcVt/InNVPwxw1CFG9n9fTKVcdg
g5PJzZaKo0zhrnNONfnoBJxPzRdf8asfbmXPFXh8zfuJKGl0i90XbgHqc0ji4YpX
oC5vBIRVBlA4eG48yH8s0wmS0osE8wMD4qEFF3x6TmiualoEanmy1ZKTwK0EHNpB
rxontI/pBQtGhnIxG08x+C47mSxnrNsO3oVkuxJAZNTzs1BS2u6V+1GwWfOyvjnW
8a/hrSh0pxjV/txfyTBw6jxLLBllN0wwtHYYLpf3b3EMaTBJOmFogMi9LQIDAQAB
o4IBGDCCARQwHQYDVR0OBBYEFA9LI4hny/7mkbIY9hJZ8lbQLDgWMIHUBgNVHSME
gcwwgcmAFCeOZxF0wyYdP+0zY7Ok2B0w5ejVoYGapIGXMIGUMQswCQYDVQQGEwJV
UzEQMA4GA1UECAwHTW9udGFuYTEQMA4GA1UEBwwHQm96ZW1hbjERMA8GA1UECgwI
U2F3dG9vdGgxEzARBgNVBAsMCkNvbnN1bHRpbmcxGDAWBgNVBAMMD3d3dy53b2xm
c3NsLmNvbTEfMB0GCSqGSIb3DQEJARYQaW5mb0B3b2xmc3NsLmNvbYIUXrqk9LH3
SCXjX5vaoRPt1SsDZxUwDwYDVR0TBAgwBgEB/wIBATALBgNVHQ8EBAMCAQYwDQYJ
KoZIhvcNAQELBQADggEBAAQoonruioPPCCbiO5L3yHTl2eJvzNifTq2WhQ6k/qxA
6xHfYPUardCpdpcN+0U+NCHPvCTp/G4rNuwhulgl2cwHkMA0C0ORioeEypUwOe+Q
avMDWG/HZgR576cLyNvrif4byXcl5rEuD8SJK091hmbDU36Ut4+9ePEbj4tOrFkt
cBnGzTJdb+UfJ2W07GbkwvJC83kxPMUHe1AmDNHtr+qRHxq2kBZLMHAu6kBDujg4
+h95r56AEL+5tojLx55/oq6mr1N1s5oXBD1nH27x8R0EA5FeMt0qHwpGCOO7EJua
GP/wM0Z8HjDwVmzm3pbWVvkA8jXxf6C/mIRGXXvH1Q8=
-----END CERTIFICATE-----
