Certificate:
    Data:
        Version: 3 (0x2)
        Serial Number: 101 (0x65)
    Signature Algorithm: sha256WithRSAEncryption
        Issuer: C = US, ST = Washington, L = Seattle, O = wolfSSL Inc., OU = Engineering, CN = chainB-ICA1-pathlen0, emailAddress = info@wolfssl.com
        Validity
            Not Before: Jan 29 07:49:12 2021 GMT
            Not After : Oct 26 07:49:12 2023 GMT
        Subject: C = US, ST = Washington, L = Seattle, O = wolfSSL Inc., OU = Engineering, CN = chainB-entity, emailAddress = info@wolfssl.com
        Subject Public Key Info:
            Public Key Algorithm: rsaEncryption
                Public-Key: (2048 bit)
                Modulus:
                    00:a6:ee:71:7b:73:ea:95:79:b6:86:27:91:c9:33:
                    66:80:3b:82:cd:78:1d:b9:57:d5:d3:d1:e5:07:7c:
                    c8:92:f7:f1:37:44:5b:9c:54:b1:19:e4:cd:a3:54:
                    5a:24:9c:9f:40:71:83:3e:be:41:08:cc:c4:7f:b4:
                    80:b1:92:f8:e3:25:41:0c:df:e4:55:48:a9:39:6d:
                    48:d8:7a:19:4b:ce:27:bc:be:47:93:b6:d4:d1:ab:
                    b9:e7:40:f5:aa:ec:89:54:d9:84:fe:b5:64:ef:29:
                    e6:55:ab:53:de:d9:4a:cd:5f:7f:e9:bc:70:97:ae:
                    dc:ad:16:5c:78:89:dc:34:87:65:33:f1:52:cf:f9:
                    23:09:9e:3f:b3:20:f2:e8:7b:c9:94:ba:b0:db:47:
                    18:de:d0:48:a2:40:da:12:0d:5a:61:45:ab:27:18:
                    ab:32:08:41:df:1b:4b:4f:60:bc:7c:0f:67:66:4c:
                    fd:c5:7e:dd:53:29:c1:ff:7f:77:d7:f4:4b:3f:79:
                    60:b5:55:4a:2b:54:df:90:4b:d5:46:e3:ae:99:3e:
                    ad:33:b7:6f:4e:ff:8f:33:19:65:e5:dd:92:d8:35:
                    1e:38:71:d5:46:2b:8b:29:2f:d3:37:b8:43:8e:3f:
                    50:c3:43:2c:4a:24:4d:ae:b6:9d:d2:73:4c:23:af:
                    69:85
                Exponent: 65537 (0x10001)
        X509v3 extensions:
            X509v3 Subject Key Identifier: 
                8E:87:45:56:61:10:76:AF:D5:38:2F:E7:A5:CC:1D:26:74:69:64:BA
            X509v3 Authority Key Identifier: 
                keyid:0F:F6:C4:1C:E2:8A:76:95:E0:A5:01:F7:B8:F2:35:51:94:5E:47:35
                DirName:/C=US/ST=Washington/L=Seattle/O=wolfSSL Inc./OU=Engineering/CN=chainB-ICA2-pathlen1/emailAddress=info@wolfssl.com
                serial:64

            X509v3 Basic Constraints: 
                CA:FALSE
    Signature Algorithm: sha256WithRSAEncryption
         66:79:82:bb:31:f4:28:1f:1a:56:a4:b8:a7:7f:a9:9f:76:3e:
         69:1a:b2:3f:16:4d:9a:5c:c5:01:39:d2:64:85:9f:4a:74:91:
         af:f3:e5:1d:76:12:eb:e6:2e:05:ca:d8:60:9b:44:2f:36:2b:
         15:af:ce:66:5f:ee:45:f5:fe:76:89:02:3b:7f:a1:d0:91:2e:
         72:c2:17:49:01:b6:0a:c1:4b:0b:b2:9d:96:44:4c:d9:d9:21:
         ab:4f:d7:63:78:29:cf:79:b5:76:22:f8:b5:e0:3a:9e:1a:58:
         05:6f:d5:f5:4a:29:3b:d2:52:fd:20:a8:d4:6a:d1:23:71:83:
         eb:8b:2c:16:fc:46:9f:66:9a:d3:00:6f:6c:b1:3c:43:9e:80:
         13:2b:04:55:e6:bf:bb:4d:5e:8b:36:1a:f2:66:78:05:28:18:
         36:59:9f:23:00:84:c3:bb:cb:73:ab:74:25:65:3d:c4:23:47:
         bd:e8:1a:f2:8a:6b:97:77:7e:36:f5:3b:fe:61:97:99:7a:84:
         35:8e:ab:f0:2f:f0:6d:58:5f:a3:11:d4:d0:9d:83:40:6d:26:
         00:1f:7c:a8:9a:50:18:84:41:51:cd:51:89:24:32:9a:68:48:
         38:bd:bc:54:39:66:53:61:07:9c:7b:ca:89:bc:fe:ca:a7:00:
         72:d4:cb:f9
-----BEGIN CERTIFICATE-----
MIIEtzCCA5+gAwIBAgIBZTANBgkqhkiG9w0BAQsFADCBoTELMAkGA1UEBhMCVVMx
EzARBgNVBAgMCldhc2hpbmd0b24xEDAOBgNVBAcMB1NlYXR0bGUxFTATBgNVBAoM
DHdvbGZTU0wgSW5jLjEUMBIGA1UECwwLRW5naW5lZXJpbmcxHTAbBgNVBAMMFGNo
YWluQi1JQ0ExLXBhdGhsZW4wMR8wHQYJKoZIhvcNAQkBFhBpbmZvQHdvbGZzc2wu
Y29tMB4XDTIxMDEyOTA3NDkxMloXDTIzMTAyNjA3NDkxMlowgZoxCzAJBgNVBAYT
AlVTMRMwEQYDVQQIDApXYXNoaW5ndG9uMRAwDgYDVQQHDAdTZWF0dGxlMRUwEwYD
VQQKDAx3b2xmU1NMIEluYy4xFDASBgNVBAsMC0VuZ2luZWVyaW5nMRYwFAYDVQQD
DA1jaGFpbkItZW50aXR5MR8wHQYJKoZIhvcNAQkBFhBpbmZvQHdvbGZzc2wuY29t
MIIBIjANBgkqhkiG9w0BAQEFAAOCAQ8AMIIBCgKCAQEApu5xe3PqlXm2hieRyTNm
gDuCzXgduVfV09HlB3zIkvfxN0RbnFSxGeTNo1RaJJyfQHGDPr5BCMzEf7SAsZL4
4yVBDN/kVUipOW1I2HoZS84nvL5Hk7bU0au550D1quyJVNmE/rVk7ynmVatT3tlK
zV9/6bxwl67crRZceIncNIdlM/FSz/kjCZ4/syDy6HvJlLqw20cY3tBIokDaEg1a
YUWrJxirMghB3xtLT2C8fA9nZkz9xX7dUynB/3931/RLP3lgtVVKK1TfkEvVRuOu
mT6tM7dvTv+PMxll5d2S2DUeOHHVRiuLKS/TN7hDjj9Qw0MsSiRNrrad0nNMI69p
hQIDAQABo4H+MIH7MB0GA1UdDgQWBBSOh0VWYRB2r9U4L+elzB0mdGlkujCBzgYD
VR0jBIHGMIHDgBQP9sQc4op2leClAfe48jVRlF5HNaGBp6SBpDCBoTELMAkGA1UE
BhMCVVMxEzARBgNVBAgMCldhc2hpbmd0b24xEDAOBgNVBAcMB1NlYXR0bGUxFTAT
BgNVBAoMDHdvbGZTU0wgSW5jLjEUMBIGA1UECwwLRW5naW5lZXJpbmcxHTAbBgNV
BAMMFGNoYWluQi1JQ0EyLXBhdGhsZW4xMR8wHQYJKoZIhvcNAQkBFhBpbmZvQHdv
bGZzc2wuY29tggFkMAkGA1UdEwQCMAAwDQYJKoZIhvcNAQELBQADggEBAGZ5grsx
9CgfGlakuKd/qZ92Pmkasj8WTZpcxQE50mSFn0p0ka/z5R12EuvmLgXK2GCbRC82
KxWvzmZf7kX1/naJAjt/odCRLnLCF0kBtgrBSwuynZZETNnZIatP12N4Kc95tXYi
+LXgOp4aWAVv1fVKKTvSUv0gqNRq0SNxg+uLLBb8Rp9mmtMAb2yxPEOegBMrBFXm
v7tNXos2GvJmeAUoGDZZnyMAhMO7y3OrdCVlPcQjR73oGvKKa5d3fjb1O/5hl5l6
hDWOq/Av8G1YX6MR1NCdg0BtJgAffKiaUBiEQVHNUYkkMppoSDi9vFQ5ZlNhB5x7
yom8/sqnAHLUy/k=
-----END CERTIFICATE-----
