Certificate:
    Data:
        Version: 3 (0x2)
        Serial Number: 100 (0x64)
    Signature Algorithm: sha256WithRSAEncryption
        Issuer: C = US, ST = Washington, L = Seattle, O = wolfSSL Inc., OU = Engineering, CN = chainI-ICA2-no_pathlen, emailAddress = info@wolfssl.com
        Validity
            Not Before: Jan 29 07:49:18 2021 GMT
            Not After : Oct 26 07:49:18 2023 GMT
        Subject: C = US, ST = Washington, L = Seattle, O = wolfSSL Inc., OU = Engineering, CN = chainI-ICA1-no_pathlen, emailAddress = info@wolfssl.com
        Subject Public Key Info:
            Public Key Algorithm: rsaEncryption
                Public-Key: (2048 bit)
                Modulus:
                    00:ba:ef:d8:c9:a5:f9:74:45:49:f8:90:c2:f5:6d:
                    ba:99:b0:ef:cf:8d:61:d4:55:37:aa:2a:9a:f2:54:
                    53:6a:ec:39:04:cb:62:53:8a:4d:1d:5b:d6:03:b8:
                    bd:de:0c:97:bb:c6:83:9c:2f:0b:93:eb:d7:21:0b:
                    3e:6e:22:e7:f5:44:81:e8:45:70:a4:01:53:05:07:
                    91:ff:9e:d9:fc:66:7d:20:30:4e:56:18:d4:58:68:
                    20:9d:97:76:52:80:4b:3c:64:5b:63:29:8d:af:c8:
                    94:2a:8a:a7:aa:96:eb:dc:3b:b0:63:c5:96:e6:c6:
                    e3:a6:59:06:15:0a:9a:07:c7:0b:9e:e0:ef:d5:db:
                    8c:fd:56:06:a5:e8:01:5a:a1:8d:e4:3e:89:2d:5e:
                    d7:c5:6c:4c:0e:4b:68:6b:cd:e6:a8:61:37:30:ce:
                    b1:73:35:8a:b3:98:b5:46:29:2e:2c:d8:76:7a:48:
                    2f:bc:08:2f:7c:e7:c9:7e:ae:09:25:e3:31:50:8b:
                    f6:f4:91:4b:ab:1a:3f:57:eb:9b:b8:26:f0:f3:c9:
                    66:96:cb:75:db:4f:fe:d3:b3:7b:cb:29:3e:7f:c4:
                    1c:6d:a5:d0:eb:06:47:2e:4e:03:7b:77:55:8e:5e:
                    28:ee:70:5f:bc:d3:11:20:99:43:6e:5c:78:2f:c4:
                    4b:57
                Exponent: 65537 (0x10001)
        X509v3 extensions:
            X509v3 Subject Key Identifier: 
                14:49:A9:3A:96:13:BE:38:8C:7F:69:02:B8:A8:67:64:51:36:B1:9B
            X509v3 Authority Key Identifier: 
                keyid:59:59:5F:6A:2A:07:1B:3A:78:AE:E7:17:11:B6:4C:C0:F1:E6:A1:D6
                DirName:/C=US/ST=Washington/L=Seattle/O=wolfSSL Inc./OU=Engineering/CN=chainI-ICA3-pathlen2/emailAddress=info@wolfssl.com
                serial:64

            X509v3 Basic Constraints: 
                CA:TRUE
            X509v3 Key Usage: 
                Certificate Sign, CRL Sign
    Signature Algorithm: sha256WithRSAEncryption
         1b:2b:98:dc:f6:0a:42:be:e1:19:37:71:cd:b1:b5:36:ba:b9:
         5c:73:c0:22:4a:e3:fb:0d:a0:fd:a3:4e:c7:14:5a:7d:0d:66:
         cc:9c:3f:31:ee:7c:da:8a:97:5c:7c:ff:87:34:63:7d:0e:3d:
         f7:11:4d:df:a4:c0:97:77:c7:08:f9:90:07:da:a4:a9:36:46:
         72:c4:58:6d:e4:ad:15:bd:d1:23:f3:d7:50:fa:ab:86:49:92:
         0e:e7:b1:65:83:64:b1:42:7c:90:5d:2f:8b:e3:86:e9:25:5f:
         5f:88:24:a3:5c:34:b1:10:2d:e2:4d:04:56:3f:3e:43:f0:42:
         85:8a:a4:52:02:00:0d:b2:a9:76:76:1e:16:f1:f3:46:c6:e3:
         61:3c:23:c8:38:86:d4:32:2f:b4:3b:ca:5d:35:a3:c8:bb:ba:
         e2:79:57:1b:ed:a1:78:39:8f:e5:f4:66:8a:b9:fb:8d:1f:10:
         61:cc:03:8c:6b:de:bd:dc:29:88:0e:cc:2e:aa:71:65:4f:49:
         d9:48:90:52:1a:5b:9f:9a:39:b5:74:68:e9:9a:3c:77:13:26:
         d8:a7:2b:65:d4:78:d9:45:70:23:13:f1:12:e8:b2:ae:39:48:
         9e:ad:e9:a9:c8:65:5b:88:b9:e9:19:f4:60:9f:25:af:9a:ac:
         9c:a6:98:13
-----BEGIN CERTIFICATE-----
MIIE1DCCA7ygAwIBAgIBZDANBgkqhkiG9w0BAQsFADCBozELMAkGA1UEBhMCVVMx
EzARBgNVBAgMCldhc2hpbmd0b24xEDAOBgNVBAcMB1NlYXR0bGUxFTATBgNVBAoM
DHdvbGZTU0wgSW5jLjEUMBIGA1UECwwLRW5naW5lZXJpbmcxHzAdBgNVBAMMFmNo
YWluSS1JQ0EyLW5vX3BhdGhsZW4xHzAdBgkqhkiG9w0BCQEWEGluZm9Ad29sZnNz
bC5jb20wHhcNMjEwMTI5MDc0OTE4WhcNMjMxMDI2MDc0OTE4WjCBozELMAkGA1UE
BhMCVVMxEzARBgNVBAgMCldhc2hpbmd0b24xEDAOBgNVBAcMB1NlYXR0bGUxFTAT
BgNVBAoMDHdvbGZTU0wgSW5jLjEUMBIGA1UECwwLRW5naW5lZXJpbmcxHzAdBgNV
BAMMFmNoYWluSS1JQ0ExLW5vX3BhdGhsZW4xHzAdBgkqhkiG9w0BCQEWEGluZm9A
d29sZnNzbC5jb20wggEiMA0GCSqGSIb3DQEBAQUAA4IBDwAwggEKAoIBAQC679jJ
pfl0RUn4kML1bbqZsO/PjWHUVTeqKpryVFNq7DkEy2JTik0dW9YDuL3eDJe7xoOc
LwuT69chCz5uIuf1RIHoRXCkAVMFB5H/ntn8Zn0gME5WGNRYaCCdl3ZSgEs8ZFtj
KY2vyJQqiqeqluvcO7BjxZbmxuOmWQYVCpoHxwue4O/V24z9Vgal6AFaoY3kPokt
XtfFbEwOS2hrzeaoYTcwzrFzNYqzmLVGKS4s2HZ6SC+8CC9858l+rgkl4zFQi/b0
kUurGj9X65u4JvDzyWaWy3XbT/7Ts3vLKT5/xBxtpdDrBkcuTgN7d1WOXijucF+8
0xEgmUNuXHgvxEtXAgMBAAGjggEPMIIBCzAdBgNVHQ4EFgQUFEmpOpYTvjiMf2kC
uKhnZFE2sZswgc4GA1UdIwSBxjCBw4AUWVlfaioHGzp4rucXEbZMwPHmodahgaek
gaQwgaExCzAJBgNVBAYTAlVTMRMwEQYDVQQIDApXYXNoaW5ndG9uMRAwDgYDVQQH
DAdTZWF0dGxlMRUwEwYDVQQKDAx3b2xmU1NMIEluYy4xFDASBgNVBAsMC0VuZ2lu
ZWVyaW5nMR0wGwYDVQQDDBRjaGFpbkktSUNBMy1wYXRobGVuMjEfMB0GCSqGSIb3
DQEJARYQaW5mb0B3b2xmc3NsLmNvbYIBZDAMBgNVHRMEBTADAQH/MAsGA1UdDwQE
AwIBBjANBgkqhkiG9w0BAQsFAAOCAQEAGyuY3PYKQr7hGTdxzbG1Nrq5XHPAIkrj
+w2g/aNOxxRafQ1mzJw/Me582oqXXHz/hzRjfQ499xFN36TAl3fHCPmQB9qkqTZG
csRYbeStFb3RI/PXUPqrhkmSDuexZYNksUJ8kF0vi+OG6SVfX4gko1w0sRAt4k0E
Vj8+Q/BChYqkUgIADbKpdnYeFvHzRsbjYTwjyDiG1DIvtDvKXTWjyLu64nlXG+2h
eDmP5fRmirn7jR8QYcwDjGvevdwpiA7MLqpxZU9J2UiQUhpbn5o5tXRo6Zo8dxMm
2KcrZdR42UVwIxPxEuiyrjlInq3pqchlW4i56Rn0YJ8lr5qsnKaYEw==
-----END CERTIFICATE-----
