Certificate:
    Data:
        Version: 3 (0x2)
        Serial Number: 100 (0x64)
    Signature Algorithm: sha256WithRSAEncryption
        Issuer: C = US, ST = Washington, L = Seattle, O = wolfSSL Inc., OU = Engineering, CN = chainJ-ICA3-no_pathlen, emailAddress = info@wolfssl.com
        Validity
            Not Before: Jan 29 07:49:19 2021 GMT
            Not After : Oct 26 07:49:19 2023 GMT
        Subject: C = US, ST = Washington, L = Seattle, O = wolfSSL Inc., OU = Engineering, CN = chainJ-ICA2-no_pathlen, emailAddress = info@wolfssl.com
        Subject Public Key Info:
            Public Key Algorithm: rsaEncryption
                Public-Key: (2048 bit)
                Modulus:
                    00:e2:94:7c:f8:12:13:ab:17:05:26:89:fa:89:ea:
                    70:a0:61:4a:75:50:87:7c:d8:d4:e3:e7:70:3c:9c:
                    20:a4:18:ed:b7:ee:bd:7a:0c:9f:a2:10:34:f8:ff:
                    0f:e0:3d:9a:11:cf:8d:0c:20:e7:ab:67:d6:64:69:
                    80:96:45:52:79:3c:5e:cc:3a:bb:4b:99:55:9d:a4:
                    21:c6:96:23:68:a6:5e:63:1f:e5:7d:61:0e:91:ab:
                    69:d1:30:20:ea:3d:ca:bf:6c:56:95:24:25:ec:6c:
                    bc:46:d9:7b:91:39:36:60:09:f5:43:6f:bb:87:9b:
                    53:88:47:1d:d6:36:fe:1a:af:8a:39:e0:6a:b5:51:
                    a1:de:df:3d:8c:d2:75:04:bb:34:bb:39:3b:8d:d9:
                    cf:36:07:25:f2:0b:c8:eb:03:0e:39:1c:01:35:b2:
                    2e:7f:d5:e4:f2:8a:0e:f0:01:7b:4e:db:36:c2:cc:
                    83:da:81:87:be:3a:fa:3b:14:85:f2:fe:cd:44:34:
                    7a:45:ba:14:97:c5:6a:31:ae:a0:0b:18:d6:6d:cd:
                    96:ed:ee:15:ed:fa:42:90:f0:c8:fe:b9:ff:fe:82:
                    78:f2:01:ec:4a:38:b6:67:a8:40:c9:82:5a:5f:48:
                    f0:36:06:79:78:f4:d9:b2:e3:6b:c6:f8:e2:1e:3d:
                    a7:c7
                Exponent: 65537 (0x10001)
        X509v3 extensions:
            X509v3 Subject Key Identifier: 
                07:53:C2:0A:3D:FD:88:C7:44:07:29:60:E4:3E:B8:FB:D7:3A:32:9E
            X509v3 Authority Key Identifier: 
                keyid:E8:DA:E8:00:62:33:CD:7E:AB:54:D8:AC:B3:EE:C7:47:98:E4:64:57
                DirName:/C=US/ST=Washington/L=Seattle/O=wolfSSL Inc./OU=Engineering/CN=chainJ-ICA4-pathlen2/emailAddress=info@wolfssl.com
                serial:64

            X509v3 Basic Constraints: 
                CA:TRUE
            X509v3 Key Usage: 
                Certificate Sign, CRL Sign
    Signature Algorithm: sha256WithRSAEncryption
         42:23:77:e7:76:d1:bc:e2:e1:0d:b3:25:c8:cd:35:70:d0:75:
         d1:8e:8b:be:43:18:61:c9:23:99:bf:6e:98:53:76:a1:f1:b9:
         93:9f:99:a0:9b:c0:4a:0f:8b:7f:a2:44:37:0b:07:aa:5e:62:
         1b:fd:58:2d:8d:78:f8:58:97:5e:3f:7e:8d:e7:88:8c:7a:b8:
         bf:f6:e4:2e:28:52:83:33:09:69:23:52:ad:c5:55:40:65:40:
         85:66:0a:7f:7c:c4:84:47:97:cc:a7:ab:f1:d8:84:32:08:3f:
         f0:4b:9c:cd:98:ca:09:92:bc:40:9a:e4:8c:7f:68:4d:10:7d:
         2c:6f:6d:56:cf:1d:ff:c1:ed:ef:e2:17:47:39:bc:b0:fd:24:
         5a:31:82:60:5d:37:9f:2c:c0:4e:35:7c:86:84:ab:4f:8e:8a:
         15:3c:f3:3e:7d:19:48:e0:77:03:2e:2c:5d:66:75:5d:18:a1:
         36:83:78:ee:15:70:bd:12:c3:e2:da:58:29:34:fe:d1:8e:fa:
         c4:61:de:4f:8b:d5:bb:d1:22:fe:e4:79:20:0b:c7:b8:12:60:
         d6:d7:c4:51:a4:71:cb:29:e7:a3:d4:32:ff:5b:c4:88:6c:db:
         b6:f5:f2:4f:e8:51:40:fb:59:86:ce:db:2e:cb:7f:5b:9c:48:
         78:94:2d:14
-----BEGIN CERTIFICATE-----
MIIE1DCCA7ygAwIBAgIBZDANBgkqhkiG9w0BAQsFADCBozELMAkGA1UEBhMCVVMx
EzARBgNVBAgMCldhc2hpbmd0b24xEDAOBgNVBAcMB1NlYXR0bGUxFTATBgNVBAoM
DHdvbGZTU0wgSW5jLjEUMBIGA1UECwwLRW5naW5lZXJpbmcxHzAdBgNVBAMMFmNo
YWluSi1JQ0EzLW5vX3BhdGhsZW4xHzAdBgkqhkiG9w0BCQEWEGluZm9Ad29sZnNz
bC5jb20wHhcNMjEwMTI5MDc0OTE5WhcNMjMxMDI2MDc0OTE5WjCBozELMAkGA1UE
BhMCVVMxEzARBgNVBAgMCldhc2hpbmd0b24xEDAOBgNVBAcMB1NlYXR0bGUxFTAT
BgNVBAoMDHdvbGZTU0wgSW5jLjEUMBIGA1UECwwLRW5naW5lZXJpbmcxHzAdBgNV
BAMMFmNoYWluSi1JQ0EyLW5vX3BhdGhsZW4xHzAdBgkqhkiG9w0BCQEWEGluZm9A
d29sZnNzbC5jb20wggEiMA0GCSqGSIb3DQEBAQUAA4IBDwAwggEKAoIBAQDilHz4
EhOrFwUmifqJ6nCgYUp1UId82NTj53A8nCCkGO237r16DJ+iEDT4/w/gPZoRz40M
IOerZ9ZkaYCWRVJ5PF7MOrtLmVWdpCHGliNopl5jH+V9YQ6Rq2nRMCDqPcq/bFaV
JCXsbLxG2XuROTZgCfVDb7uHm1OIRx3WNv4ar4o54Gq1UaHe3z2M0nUEuzS7OTuN
2c82ByXyC8jrAw45HAE1si5/1eTyig7wAXtO2zbCzIPagYe+Ovo7FIXy/s1ENHpF
uhSXxWoxrqALGNZtzZbt7hXt+kKQ8Mj+uf/+gnjyAexKOLZnqEDJglpfSPA2Bnl4
9Nmy42vG+OIePafHAgMBAAGjggEPMIIBCzAdBgNVHQ4EFgQUB1PCCj39iMdEBylg
5D64+9c6Mp4wgc4GA1UdIwSBxjCBw4AU6NroAGIzzX6rVNiss+7HR5jkZFehgaek
gaQwgaExCzAJBgNVBAYTAlVTMRMwEQYDVQQIDApXYXNoaW5ndG9uMRAwDgYDVQQH
DAdTZWF0dGxlMRUwEwYDVQQKDAx3b2xmU1NMIEluYy4xFDASBgNVBAsMC0VuZ2lu
ZWVyaW5nMR0wGwYDVQQDDBRjaGFpbkotSUNBNC1wYXRobGVuMjEfMB0GCSqGSIb3
DQEJARYQaW5mb0B3b2xmc3NsLmNvbYIBZDAMBgNVHRMEBTADAQH/MAsGA1UdDwQE
AwIBBjANBgkqhkiG9w0BAQsFAAOCAQEAQiN353bRvOLhDbMlyM01cNB10Y6LvkMY
Yckjmb9umFN2ofG5k5+ZoJvASg+Lf6JENwsHql5iG/1YLY14+FiXXj9+jeeIjHq4
v/bkLihSgzMJaSNSrcVVQGVAhWYKf3zEhEeXzKer8diEMgg/8EuczZjKCZK8QJrk
jH9oTRB9LG9tVs8d/8Ht7+IXRzm8sP0kWjGCYF03nyzATjV8hoSrT46KFTzzPn0Z
SOB3Ay4sXWZ1XRihNoN47hVwvRLD4tpYKTT+0Y76xGHeT4vVu9Ei/uR5IAvHuBJg
1tfEUaRxyynno9Qy/1vEiGzbtvXyT+hRQPtZhs7bLst/W5xIeJQtFA==
-----END CERTIFICATE-----
