Certificate:
    Data:
        Version: 3 (0x2)
        Serial Number: 100 (0x64)
    Signature Algorithm: sha256WithRSAEncryption
        Issuer: C = US, ST = Montana, L = Bozeman, O = Sawtooth, OU = Consulting, CN = www.wolfssl.com, emailAddress = info@wolfssl.com
        Validity
            Not Before: Jan 29 07:49:13 2021 GMT
            Not After : Oct 26 07:49:13 2023 GMT
        Subject: C = US, ST = Washington, L = Seattle, O = wolfSSL Inc., OU = Engineering, CN = chainE-ICA1-pathlen128, emailAddress = info@wolfssl.com
        Subject Public Key Info:
            Public Key Algorithm: rsaEncryption
                Public-Key: (2048 bit)
                Modulus:
                    00:cf:af:46:e2:b3:c2:bb:c6:7c:f4:b6:b0:63:7e:
                    42:c5:53:ae:55:0c:af:22:51:ce:27:43:de:90:59:
                    59:f0:bb:39:80:04:0c:b9:02:89:2c:1c:07:b2:b1:
                    a5:7a:2f:2a:d7:9d:98:46:08:37:33:a8:40:49:93:
                    21:0a:82:d5:73:aa:51:e6:ca:53:cf:87:87:61:56:
                    dd:28:9b:70:a0:c0:5a:d7:6c:76:c4:b1:52:04:a9:
                    90:8a:c5:44:55:24:02:93:30:a5:18:ca:ed:e6:2e:
                    c7:c5:59:c1:de:9f:1a:4e:f4:c6:ea:f8:48:b0:3c:
                    59:29:cd:ed:d3:ca:2e:7e:f9:e2:6e:bb:6c:3f:e0:
                    75:58:80:34:f5:b5:04:11:6b:1b:1c:31:a1:0e:73:
                    4e:22:ae:91:97:10:95:6a:e8:8b:72:22:bb:2a:12:
                    7e:8b:1d:a7:29:cc:4d:bd:fe:5b:a6:a5:3e:c5:7f:
                    8b:4c:ec:4a:60:40:2d:ea:db:b4:92:e6:93:44:e5:
                    c8:6a:5e:2e:55:e0:4d:23:a4:56:a6:6e:55:ce:7e:
                    bd:a9:ee:be:73:fa:ce:af:8e:9a:a1:cb:cb:8e:b9:
                    73:a6:f5:7e:3d:b2:64:d7:8b:63:c7:56:50:b8:a3:
                    39:67:d9:c2:16:9b:77:ed:95:82:a7:71:bb:2e:ef:
                    4d:db
                Exponent: 65537 (0x10001)
        X509v3 extensions:
            X509v3 Subject Key Identifier: 
                68:30:55:10:C2:A5:3C:CC:9E:12:3D:0E:9A:75:A3:3B:F4:62:1D:17
            X509v3 Authority Key Identifier: 
                keyid:27:8E:67:11:74:C3:26:1D:3F:ED:33:63:B3:A4:D8:1D:30:E5:E8:D5
                DirName:/C=US/ST=Montana/L=Bozeman/O=Sawtooth/OU=Consulting/CN=www.wolfssl.com/emailAddress=info@wolfssl.com
                serial:5E:BA:A4:F4:B1:F7:48:25:E3:5F:9B:DA:A1:13:ED:D5:2B:03:67:15

            X509v3 Basic Constraints: 
                CA:TRUE, pathlen:128
            X509v3 Key Usage: 
                Certificate Sign, CRL Sign
    Signature Algorithm: sha256WithRSAEncryption
         8b:a9:06:1a:bc:aa:0f:08:78:d2:c9:97:b7:35:12:83:a9:d7:
         ab:e9:c8:5c:3d:2f:16:9e:b9:a8:fe:13:7a:45:76:2c:ab:02:
         9d:51:1d:39:a6:0b:9f:ab:b0:9b:d1:d7:20:8d:9c:da:4a:24:
         12:54:60:0c:e9:2f:72:92:90:5e:ea:59:d1:af:a8:24:69:f9:
         85:ac:da:79:ed:fa:f1:23:54:41:62:b3:72:d1:93:c7:b8:2b:
         bd:b8:7d:da:88:56:7d:70:e9:b3:d5:c2:e8:1d:d8:b4:e5:6a:
         ab:fa:45:83:15:5d:c8:1e:fd:3a:dc:9d:30:c7:8b:d5:6d:c0:
         c5:2f:ae:7e:22:e5:e4:b6:cc:10:8a:54:ec:13:dd:23:db:3c:
         d7:91:35:b0:b4:a3:63:ab:d1:55:81:81:9c:d5:12:18:eb:f6:
         40:ff:c0:77:44:ca:c5:2e:db:ff:0b:6a:45:0c:48:20:7e:a8:
         32:df:47:42:d9:3e:9d:16:39:0a:91:e8:69:7d:5e:16:89:82:
         54:b6:8a:69:96:67:68:13:fd:cf:86:42:c7:59:5d:cd:ee:df:
         04:88:a7:6e:ad:03:ce:6d:79:97:de:d9:0e:07:05:a8:b4:a7:
         a5:19:23:cb:c5:97:4d:6a:c4:f2:ad:35:b5:1d:14:e6:bd:fb:
         3e:87:d7:3f
-----BEGIN CERTIFICATE-----
MIIEzzCCA7egAwIBAgIBZDANBgkqhkiG9w0BAQsFADCBlDELMAkGA1UEBhMCVVMx
EDAOBgNVBAgMB01vbnRhbmExEDAOBgNVBAcMB0JvemVtYW4xETAPBgNVBAoMCFNh
d3Rvb3RoMRMwEQYDVQQLDApDb25zdWx0aW5nMRgwFgYDVQQDDA93d3cud29sZnNz
bC5jb20xHzAdBgkqhkiG9w0BCQEWEGluZm9Ad29sZnNzbC5jb20wHhcNMjEwMTI5
MDc0OTEzWhcNMjMxMDI2MDc0OTEzWjCBozELMAkGA1UEBhMCVVMxEzARBgNVBAgM
Cldhc2hpbmd0b24xEDAOBgNVBAcMB1NlYXR0bGUxFTATBgNVBAoMDHdvbGZTU0wg
SW5jLjEUMBIGA1UECwwLRW5naW5lZXJpbmcxHzAdBgNVBAMMFmNoYWluRS1JQ0Ex
LXBhdGhsZW4xMjgxHzAdBgkqhkiG9w0BCQEWEGluZm9Ad29sZnNzbC5jb20wggEi
MA0GCSqGSIb3DQEBAQUAA4IBDwAwggEKAoIBAQDPr0bis8K7xnz0trBjfkLFU65V
DK8iUc4nQ96QWVnwuzmABAy5AoksHAeysaV6LyrXnZhGCDczqEBJkyEKgtVzqlHm
ylPPh4dhVt0om3CgwFrXbHbEsVIEqZCKxURVJAKTMKUYyu3mLsfFWcHenxpO9Mbq
+EiwPFkpze3Tyi5++eJuu2w/4HVYgDT1tQQRaxscMaEOc04irpGXEJVq6ItyIrsq
En6LHacpzE29/lumpT7Ff4tM7EpgQC3q27SS5pNE5chqXi5V4E0jpFamblXOfr2p
7r5z+s6vjpqhy8uOuXOm9X49smTXi2PHVlC4ozln2cIWm3ftlYKncbsu703bAgMB
AAGjggEZMIIBFTAdBgNVHQ4EFgQUaDBVEMKlPMyeEj0OmnWjO/RiHRcwgdQGA1Ud
IwSBzDCByYAUJ45nEXTDJh0/7TNjs6TYHTDl6NWhgZqkgZcwgZQxCzAJBgNVBAYT
AlVTMRAwDgYDVQQIDAdNb250YW5hMRAwDgYDVQQHDAdCb3plbWFuMREwDwYDVQQK
DAhTYXd0b290aDETMBEGA1UECwwKQ29uc3VsdGluZzEYMBYGA1UEAwwPd3d3Lndv
bGZzc2wuY29tMR8wHQYJKoZIhvcNAQkBFhBpbmZvQHdvbGZzc2wuY29tghReuqT0
sfdIJeNfm9qhE+3VKwNnFTAQBgNVHRMECTAHAQH/AgIAgDALBgNVHQ8EBAMCAQYw
DQYJKoZIhvcNAQELBQADggEBAIupBhq8qg8IeNLJl7c1EoOp16vpyFw9Lxaeuaj+
E3pFdiyrAp1RHTmmC5+rsJvR1yCNnNpKJBJUYAzpL3KSkF7qWdGvqCRp+YWs2nnt
+vEjVEFis3LRk8e4K724fdqIVn1w6bPVwugd2LTlaqv6RYMVXcge/TrcnTDHi9Vt
wMUvrn4i5eS2zBCKVOwT3SPbPNeRNbC0o2Or0VWBgZzVEhjr9kD/wHdEysUu2/8L
akUMSCB+qDLfR0LZPp0WOQqR6Gl9XhaJglS2immWZ2gT/c+GQsdZXc3u3wSIp26t
A85teZfe2Q4HBai0p6UZI8vFl01qxPKtNbUdFOa9+z6H1z8=
-----END CERTIFICATE-----
