Certificate:
    Data:
        Version: 3 (0x2)
        Serial Number: 101 (0x65)
    Signature Algorithm: sha256WithRSAEncryption
        Issuer: C = US, ST = Washington, L = Seattle, O = wolfSSL Inc., OU = Engineering, CN = chainD-ICA1-pathlen127, emailAddress = info@wolfssl.com
        Validity
            Not Before: Jan 29 07:49:13 2021 GMT
            Not After : Oct 26 07:49:13 2023 GMT
        Subject: C = US, ST = Washington, L = Seattle, O = wolfSSL Inc., OU = Engineering, CN = chainD-entity, emailAddress = info@wolfssl.com
        Subject Public Key Info:
            Public Key Algorithm: rsaEncryption
                Public-Key: (2048 bit)
                Modulus:
                    00:c4:60:db:55:ae:da:ec:a2:bb:17:0a:29:fd:a6:
                    89:45:a6:17:a5:ce:93:6e:7b:ab:25:1f:41:e7:eb:
                    c7:9d:5f:5e:e1:8f:6a:45:7e:5f:8d:71:14:c1:e2:
                    53:ce:3e:5d:dd:a2:4d:ed:4e:6c:c1:49:24:bd:8d:
                    73:56:eb:ab:75:fd:65:31:c1:54:00:0c:d2:c3:f0:
                    c0:fa:11:90:e9:16:0e:c9:1b:6b:7c:62:12:08:7d:
                    ab:11:8a:31:bd:51:bc:db:2d:15:db:6f:04:8a:e0:
                    c9:7f:f6:70:81:c9:ba:61:a4:09:da:60:a0:b2:8e:
                    72:d1:56:5b:b5:b3:62:82:e6:34:7d:25:59:fe:82:
                    d6:19:54:27:29:d4:c0:81:f0:6c:2f:ea:d6:69:d6:
                    40:02:06:9b:89:9a:c8:78:f3:08:be:64:97:af:43:
                    e0:aa:b2:23:2a:e6:5d:d7:6c:c7:15:28:fb:83:ba:
                    21:c6:56:7a:88:31:55:ab:1e:ca:83:42:6d:f8:9a:
                    99:55:a3:03:cb:ac:15:84:a2:71:a8:3a:00:53:d2:
                    9d:90:13:6e:52:25:c0:b1:e4:97:0e:15:ad:eb:c0:
                    be:34:94:5f:99:45:00:53:87:c7:ef:f9:69:e9:73:
                    2a:7e:ff:37:ee:b9:9b:13:4b:67:b9:28:ea:ac:42:
                    e3:ab
                Exponent: 65537 (0x10001)
        X509v3 extensions:
            X509v3 Subject Key Identifier: 
                1F:0E:47:E3:34:98:B5:F4:5B:80:39:2D:EC:14:B9:FB:0D:BD:F4:64
            X509v3 Authority Key Identifier: 
                keyid:F6:FA:EA:B8:BE:7F:88:E3:18:80:5E:F4:A3:C8:03:22:9A:A4:84:BC
                DirName:/C=US/ST=Montana/L=Bozeman/O=Sawtooth/OU=Consulting/CN=www.wolfssl.com/emailAddress=info@wolfssl.com
                serial:64

            X509v3 Basic Constraints: 
                CA:FALSE
    Signature Algorithm: sha256WithRSAEncryption
         25:f2:74:77:45:3c:c4:07:07:b4:1e:46:a5:9a:ff:42:76:7c:
         95:be:df:e8:ad:50:13:68:59:18:ec:03:bf:f1:05:a4:15:a2:
         1b:d2:35:14:cb:aa:d3:87:32:15:ca:ea:a4:da:1b:bf:10:57:
         e0:e5:a0:58:3e:d8:af:c2:ab:16:98:61:6a:ed:d2:a2:bb:45:
         4a:11:d7:58:15:29:c7:98:17:47:d3:28:eb:53:d9:cf:e3:51:
         eb:7b:78:93:75:c6:9b:f2:f1:4a:40:53:70:f5:3f:36:5e:88:
         03:d1:da:8c:a3:be:a7:42:f0:15:f6:4e:85:91:66:e8:a3:3b:
         ad:fa:49:a8:9b:22:a7:00:a2:e1:16:9b:5b:d0:11:01:c6:fb:
         08:35:c6:90:eb:d0:c5:38:d5:33:e8:c3:3d:df:00:2e:c6:4d:
         d8:44:04:c7:7b:3e:23:ac:c9:d8:27:f5:c5:e4:b5:bc:3c:03:
         5f:72:52:2c:62:3c:dc:2d:3f:9f:f2:23:b3:79:91:99:6a:32:
         db:36:a0:55:00:00:85:12:23:b3:be:cb:d3:db:48:6f:44:7a:
         0f:a0:06:5f:5b:82:9a:34:20:06:be:55:07:72:69:6b:d6:82:
         72:bd:62:03:f5:5f:d4:7d:32:5d:ba:31:18:16:69:3c:12:38:
         b2:c5:af:ab
-----BEGIN CERTIFICATE-----
MIIErDCCA5SgAwIBAgIBZTANBgkqhkiG9w0BAQsFADCBozELMAkGA1UEBhMCVVMx
EzARBgNVBAgMCldhc2hpbmd0b24xEDAOBgNVBAcMB1NlYXR0bGUxFTATBgNVBAoM
DHdvbGZTU0wgSW5jLjEUMBIGA1UECwwLRW5naW5lZXJpbmcxHzAdBgNVBAMMFmNo
YWluRC1JQ0ExLXBhdGhsZW4xMjcxHzAdBgkqhkiG9w0BCQEWEGluZm9Ad29sZnNz
bC5jb20wHhcNMjEwMTI5MDc0OTEzWhcNMjMxMDI2MDc0OTEzWjCBmjELMAkGA1UE
BhMCVVMxEzARBgNVBAgMCldhc2hpbmd0b24xEDAOBgNVBAcMB1NlYXR0bGUxFTAT
BgNVBAoMDHdvbGZTU0wgSW5jLjEUMBIGA1UECwwLRW5naW5lZXJpbmcxFjAUBgNV
BAMMDWNoYWluRC1lbnRpdHkxHzAdBgkqhkiG9w0BCQEWEGluZm9Ad29sZnNzbC5j
b20wggEiMA0GCSqGSIb3DQEBAQUAA4IBDwAwggEKAoIBAQDEYNtVrtrsorsXCin9
polFphelzpNue6slH0Hn68edX17hj2pFfl+NcRTB4lPOPl3dok3tTmzBSSS9jXNW
66t1/WUxwVQADNLD8MD6EZDpFg7JG2t8YhIIfasRijG9UbzbLRXbbwSK4Ml/9nCB
ybphpAnaYKCyjnLRVlu1s2KC5jR9JVn+gtYZVCcp1MCB8Gwv6tZp1kACBpuJmsh4
8wi+ZJevQ+CqsiMq5l3XbMcVKPuDuiHGVnqIMVWrHsqDQm34mplVowPLrBWEonGo
OgBT0p2QE25SJcCx5JcOFa3rwL40lF+ZRQBTh8fv+Wnpcyp+/zfuuZsTS2e5KOqs
QuOrAgMBAAGjgfEwge4wHQYDVR0OBBYEFB8OR+M0mLX0W4A5LewUufsNvfRkMIHB
BgNVHSMEgbkwgbaAFPb66ri+f4jjGIBe9KPIAyKapIS8oYGapIGXMIGUMQswCQYD
VQQGEwJVUzEQMA4GA1UECAwHTW9udGFuYTEQMA4GA1UEBwwHQm96ZW1hbjERMA8G
A1UECgwIU2F3dG9vdGgxEzARBgNVBAsMCkNvbnN1bHRpbmcxGDAWBgNVBAMMD3d3
dy53b2xmc3NsLmNvbTEfMB0GCSqGSIb3DQEJARYQaW5mb0B3b2xmc3NsLmNvbYIB
ZDAJBgNVHRMEAjAAMA0GCSqGSIb3DQEBCwUAA4IBAQAl8nR3RTzEBwe0Hkalmv9C
dnyVvt/orVATaFkY7AO/8QWkFaIb0jUUy6rThzIVyuqk2hu/EFfg5aBYPtivwqsW
mGFq7dKiu0VKEddYFSnHmBdH0yjrU9nP41Hre3iTdcab8vFKQFNw9T82XogD0dqM
o76nQvAV9k6FkWboozut+kmomyKnAKLhFptb0BEBxvsINcaQ69DFONUz6MM93wAu
xk3YRATHez4jrMnYJ/XF5LW8PANfclIsYjzcLT+f8iOzeZGZajLbNqBVAACFEiOz
vsvT20hvRHoPoAZfW4KaNCAGvlUHcmlr1oJyvWID9V/UfTJdujEYFmk8Ejiyxa+r
-----END CERTIFICATE-----
