Certificate:
    Data:
        Version: 3 (0x2)
        Serial Number: 101 (0x65)
    Signature Algorithm: sha256WithRSAEncryption
        Issuer: C = US, ST = Washington, L = Seattle, O = wolfSSL Inc., OU = Engineering, CN = chainA-ICA1-pathlen0, emailAddress = info@wolfssl.com
        Validity
            Not Before: Jan 29 07:49:11 2021 GMT
            Not After : Oct 26 07:49:11 2023 GMT
        Subject: C = US, ST = Washington, L = Seattle, O = wolfSSL Inc., OU = Engineering, CN = chainA-entity, emailAddress = info@wolfssl.com
        Subject Public Key Info:
            Public Key Algorithm: rsaEncryption
                Public-Key: (2048 bit)
                Modulus:
                    00:cc:5d:8f:07:8c:23:f5:a0:b2:59:a7:75:06:71:
                    cb:c8:36:ff:bd:64:f3:f3:a5:aa:41:8c:5e:41:2e:
                    04:36:a9:45:3b:10:97:72:4c:9b:c1:28:72:8b:9c:
                    af:60:7d:55:e3:20:2a:a5:b1:1c:f8:0e:6d:ca:7b:
                    8b:04:26:ee:37:14:3a:3d:91:8c:33:22:7f:b1:d2:
                    98:59:a1:92:90:67:f7:0c:db:ac:7b:71:cb:55:aa:
                    11:5d:16:76:37:c9:5e:b9:19:d2:3f:1a:68:32:93:
                    ca:64:26:c8:90:bd:d2:fc:0a:53:dc:41:46:ec:13:
                    ba:1c:32:df:58:9e:56:2c:86:1c:db:29:49:3f:04:
                    45:7f:83:01:f2:b8:48:a9:e9:b7:73:cc:e8:9c:97:
                    cf:74:72:4e:60:1f:b7:47:4d:38:36:1a:69:81:fa:
                    ce:4a:ac:6d:6c:fc:fc:0b:82:c9:e5:0b:5c:25:2a:
                    48:57:f4:29:39:26:bd:0b:f2:bf:21:8c:d4:84:33:
                    78:5a:ba:16:0a:cf:7f:47:67:03:40:f1:c8:2d:59:
                    78:16:ed:5a:e8:29:ac:9f:cc:c9:48:a0:85:29:9c:
                    1a:8c:07:66:85:b1:58:d3:bd:19:42:74:3a:e4:0a:
                    d4:e2:67:5e:6e:c2:fc:db:24:b3:cc:44:b3:47:2b:
                    c4:fd
                Exponent: 65537 (0x10001)
        X509v3 extensions:
            X509v3 Subject Key Identifier: 
                B6:2A:6D:EA:FF:78:9D:0B:DF:48:D6:58:DF:87:DA:82:02:49:0E:26
            X509v3 Authority Key Identifier: 
                keyid:FC:BD:AC:7E:5A:68:BF:A1:83:46:94:CF:71:08:19:77:7E:00:15:1F
                DirName:/C=US/ST=Montana/L=Bozeman/O=Sawtooth/OU=Consulting/CN=www.wolfssl.com/emailAddress=info@wolfssl.com
                serial:64

            X509v3 Basic Constraints: 
                CA:FALSE
    Signature Algorithm: sha256WithRSAEncryption
         3d:28:27:4b:46:b1:ed:70:e9:b9:d6:21:87:1f:dc:3c:c9:3c:
         37:74:c7:ac:b2:04:42:13:5e:da:a4:f9:e6:03:8f:50:17:8a:
         6c:5e:c9:bb:db:58:1a:b2:27:76:a6:b5:25:71:e1:a6:7f:4e:
         2d:39:a7:ff:bf:b4:20:4f:d5:77:b5:25:a3:69:1b:9d:77:70:
         c8:a5:16:32:71:51:c6:94:79:57:03:f0:af:58:09:bd:2d:fb:
         3c:ff:47:ab:49:24:f2:1c:80:2e:05:54:a6:85:c7:4d:d6:14:
         cd:57:9e:a6:22:6d:0e:ae:9e:69:ee:67:e5:d4:19:0f:3d:c7:
         b9:f7:20:77:bd:4a:3e:b5:b3:0d:65:6b:cd:88:e7:fb:6b:fc:
         ae:18:69:10:49:f8:45:ac:f3:92:7c:2f:dc:b8:1b:88:54:42:
         1f:0b:a6:52:e3:4e:bf:8d:77:6c:53:a4:8c:7a:90:ac:04:8f:
         56:db:78:c5:9d:63:16:66:ad:05:16:99:10:15:5d:5f:6f:ea:
         f7:7c:51:7a:a7:7f:0f:c8:3b:3b:5e:d7:5c:4d:c3:83:ae:0d:
         21:c5:61:5d:9e:3a:55:81:6c:84:a5:07:a5:54:7e:27:ee:9a:
         56:7a:19:73:53:5d:04:ee:1d:fe:f4:a5:11:80:3b:36:8a:c5:
         f9:30:c2:a1
-----BEGIN CERTIFICATE-----
MIIEqjCCA5KgAwIBAgIBZTANBgkqhkiG9w0BAQsFADCBoTELMAkGA1UEBhMCVVMx
EzARBgNVBAgMCldhc2hpbmd0b24xEDAOBgNVBAcMB1NlYXR0bGUxFTATBgNVBAoM
DHdvbGZTU0wgSW5jLjEUMBIGA1UECwwLRW5naW5lZXJpbmcxHTAbBgNVBAMMFGNo
YWluQS1JQ0ExLXBhdGhsZW4wMR8wHQYJKoZIhvcNAQkBFhBpbmZvQHdvbGZzc2wu
Y29tMB4XDTIxMDEyOTA3NDkxMVoXDTIzMTAyNjA3NDkxMVowgZoxCzAJBgNVBAYT
AlVTMRMwEQYDVQQIDApXYXNoaW5ndG9uMRAwDgYDVQQHDAdTZWF0dGxlMRUwEwYD
VQQKDAx3b2xmU1NMIEluYy4xFDASBgNVBAsMC0VuZ2luZWVyaW5nMRYwFAYDVQQD
DA1jaGFpbkEtZW50aXR5MR8wHQYJKoZIhvcNAQkBFhBpbmZvQHdvbGZzc2wuY29t
MIIBIjANBgkqhkiG9w0BAQEFAAOCAQ8AMIIBCgKCAQEAzF2PB4wj9aCyWad1BnHL
yDb/vWTz86WqQYxeQS4ENqlFOxCXckybwShyi5yvYH1V4yAqpbEc+A5tynuLBCbu
NxQ6PZGMMyJ/sdKYWaGSkGf3DNuse3HLVaoRXRZ2N8leuRnSPxpoMpPKZCbIkL3S
/ApT3EFG7BO6HDLfWJ5WLIYc2ylJPwRFf4MB8rhIqem3c8zonJfPdHJOYB+3R004
NhppgfrOSqxtbPz8C4LJ5QtcJSpIV/QpOSa9C/K/IYzUhDN4WroWCs9/R2cDQPHI
LVl4Fu1a6Cmsn8zJSKCFKZwajAdmhbFY070ZQnQ65ArU4mdebsL82ySzzESzRyvE
/QIDAQABo4HxMIHuMB0GA1UdDgQWBBS2Km3q/3idC99I1ljfh9qCAkkOJjCBwQYD
VR0jBIG5MIG2gBT8vax+Wmi/oYNGlM9xCBl3fgAVH6GBmqSBlzCBlDELMAkGA1UE
BhMCVVMxEDAOBgNVBAgMB01vbnRhbmExEDAOBgNVBAcMB0JvemVtYW4xETAPBgNV
BAoMCFNhd3Rvb3RoMRMwEQYDVQQLDApDb25zdWx0aW5nMRgwFgYDVQQDDA93d3cu
d29sZnNzbC5jb20xHzAdBgkqhkiG9w0BCQEWEGluZm9Ad29sZnNzbC5jb22CAWQw
CQYDVR0TBAIwADANBgkqhkiG9w0BAQsFAAOCAQEAPSgnS0ax7XDpudYhhx/cPMk8
N3THrLIEQhNe2qT55gOPUBeKbF7Ju9tYGrIndqa1JXHhpn9OLTmn/7+0IE/Vd7Ul
o2kbnXdwyKUWMnFRxpR5VwPwr1gJvS37PP9Hq0kk8hyALgVUpoXHTdYUzVeepiJt
Dq6eae5n5dQZDz3Hufcgd71KPrWzDWVrzYjn+2v8rhhpEEn4Razzknwv3LgbiFRC
HwumUuNOv413bFOkjHqQrASPVtt4xZ1jFmatBRaZEBVdX2/q93xReqd/D8g7O17X
XE3Dg64NIcVhXZ46VYFshKUHpVR+J+6aVnoZc1NdBO4d/vSlEYA7NorF+TDCoQ==
-----END CERTIFICATE-----
