Certificate:
    Data:
        Version: 3 (0x2)
        Serial Number: 100 (0x64)
    Signature Algorithm: sha256WithRSAEncryption
        Issuer: C = US, ST = Washington, L = Seattle, O = wolfSSL Inc., OU = Engineering, CN = chainJ-ICA2-no_pathlen, emailAddress = info@wolfssl.com
        Validity
            Not Before: Jan 29 07:49:19 2021 GMT
            Not After : Oct 26 07:49:19 2023 GMT
        Subject: C = US, ST = Washington, L = Seattle, O = wolfSSL Inc., OU = Engineering, CN = chainJ-ICA1-no_pathlen, emailAddress = info@wolfssl.com
        Subject Public Key Info:
            Public Key Algorithm: rsaEncryption
                Public-Key: (2048 bit)
                Modulus:
                    00:ad:af:36:59:ae:1e:7d:ae:ee:67:43:53:cc:4f:
                    0f:5f:5d:74:02:4f:6b:60:b2:18:21:ee:dd:fb:6a:
                    dd:67:20:71:f1:79:4c:a8:5c:e0:f2:b5:ed:e7:0e:
                    3e:75:30:8f:71:bc:97:6e:4b:d8:c0:f9:44:8f:f7:
                    fe:41:ec:2d:e9:41:3d:0a:a3:e3:fb:06:a3:bd:94:
                    1f:af:dd:66:a7:41:54:65:df:ca:9b:4e:93:32:6c:
                    43:50:20:9f:02:5b:14:24:3a:41:ae:78:c7:24:c0:
                    0f:c6:07:00:8c:8d:53:ed:43:35:f6:fd:99:55:84:
                    8c:34:55:9c:f6:97:86:d6:97:af:f3:97:71:eb:f1:
                    43:0d:00:3b:5c:81:91:63:0c:3c:c5:c5:82:97:55:
                    da:bf:d4:5b:8d:ba:81:10:19:00:1d:c2:f2:f7:e5:
                    98:2f:26:c5:ea:2b:5b:fb:ac:4e:c7:f7:3d:2a:38:
                    ab:6a:89:9e:aa:89:2b:d9:92:90:b1:e2:2f:ce:d5:
                    19:d1:e8:03:04:11:c4:01:a4:5d:fa:46:c9:a2:47:
                    36:53:17:db:4a:cd:ad:3c:b7:ab:62:79:46:81:72:
                    5b:86:73:85:c1:8f:ef:97:9f:2e:13:95:a9:78:23:
                    02:8e:f7:ca:60:2a:bc:81:1c:23:da:a1:26:c4:35:
                    9b:5f
                Exponent: 65537 (0x10001)
        X509v3 extensions:
            X509v3 Subject Key Identifier: 
                4B:F2:A0:E5:8A:11:B5:8F:45:72:43:BB:69:B7:35:CA:D5:63:01:2E
            X509v3 Authority Key Identifier: 
                keyid:07:53:C2:0A:3D:FD:88:C7:44:07:29:60:E4:3E:B8:FB:D7:3A:32:9E
                DirName:/C=US/ST=Washington/L=Seattle/O=wolfSSL Inc./OU=Engineering/CN=chainJ-ICA3-no_pathlen/emailAddress=info@wolfssl.com
                serial:64

            X509v3 Basic Constraints: 
                CA:TRUE
            X509v3 Key Usage: 
                Certificate Sign, CRL Sign
    Signature Algorithm: sha256WithRSAEncryption
         df:4e:d1:66:9e:1a:f6:bd:1a:15:3a:c5:16:1e:e2:b2:54:82:
         57:a2:97:f8:e8:9a:87:62:98:5d:67:1b:34:c5:82:71:c6:b4:
         7a:c3:a3:64:8b:a8:3d:37:47:e3:34:c2:3f:c5:88:08:11:34:
         38:bb:23:43:73:16:cb:02:58:37:94:1d:ea:74:60:cc:4a:43:
         56:35:d2:62:2a:b7:a7:68:3c:b1:d6:0b:b2:25:b9:72:6c:57:
         2c:db:b5:74:e5:96:48:1a:a4:65:c5:82:c4:84:68:7b:31:63:
         3f:38:4b:eb:a1:d7:a2:1a:ad:13:68:34:64:8b:79:6b:60:97:
         ea:42:0f:b4:5c:42:4f:64:37:1e:06:68:48:7d:20:ea:39:86:
         c2:c7:8a:56:87:1f:3e:3f:44:e1:8c:63:88:e2:77:b7:3b:c2:
         be:1d:fc:f7:d5:49:73:f5:36:fc:3a:dc:f6:4d:33:74:d0:54:
         cb:9b:e5:04:06:00:1f:dc:21:e1:d2:21:26:a6:00:59:74:8a:
         b8:a4:87:1d:21:8a:57:70:60:f8:81:8a:09:12:61:7f:81:d4:
         6f:04:c3:57:6a:7f:20:17:72:ae:76:d8:76:b7:63:5e:fa:40:
         e2:88:c7:74:f5:14:eb:97:c4:a5:85:95:ee:22:2c:c1:46:2e:
         dc:33:bc:9b
-----BEGIN CERTIFICATE-----
MIIE1jCCA76gAwIBAgIBZDANBgkqhkiG9w0BAQsFADCBozELMAkGA1UEBhMCVVMx
EzARBgNVBAgMCldhc2hpbmd0b24xEDAOBgNVBAcMB1NlYXR0bGUxFTATBgNVBAoM
DHdvbGZTU0wgSW5jLjEUMBIGA1UECwwLRW5naW5lZXJpbmcxHzAdBgNVBAMMFmNo
YWluSi1JQ0EyLW5vX3BhdGhsZW4xHzAdBgkqhkiG9w0BCQEWEGluZm9Ad29sZnNz
bC5jb20wHhcNMjEwMTI5MDc0OTE5WhcNMjMxMDI2MDc0OTE5WjCBozELMAkGA1UE
BhMCVVMxEzARBgNVBAgMCldhc2hpbmd0b24xEDAOBgNVBAcMB1NlYXR0bGUxFTAT
BgNVBAoMDHdvbGZTU0wgSW5jLjEUMBIGA1UECwwLRW5naW5lZXJpbmcxHzAdBgNV
BAMMFmNoYWluSi1JQ0ExLW5vX3BhdGhsZW4xHzAdBgkqhkiG9w0BCQEWEGluZm9A
d29sZnNzbC5jb20wggEiMA0GCSqGSIb3DQEBAQUAA4IBDwAwggEKAoIBAQCtrzZZ
rh59ru5nQ1PMTw9fXXQCT2tgshgh7t37at1nIHHxeUyoXODyte3nDj51MI9xvJdu
S9jA+USP9/5B7C3pQT0Ko+P7BqO9lB+v3WanQVRl38qbTpMybENQIJ8CWxQkOkGu
eMckwA/GBwCMjVPtQzX2/ZlVhIw0VZz2l4bWl6/zl3Hr8UMNADtcgZFjDDzFxYKX
Vdq/1FuNuoEQGQAdwvL35ZgvJsXqK1v7rE7H9z0qOKtqiZ6qiSvZkpCx4i/O1RnR
6AMEEcQBpF36RsmiRzZTF9tKza08t6tieUaBcluGc4XBj++Xny4Tlal4IwKO98pg
KryBHCPaoSbENZtfAgMBAAGjggERMIIBDTAdBgNVHQ4EFgQUS/Kg5YoRtY9FckO7
abc1ytVjAS4wgdAGA1UdIwSByDCBxYAUB1PCCj39iMdEBylg5D64+9c6Mp6hgamk
gaYwgaMxCzAJBgNVBAYTAlVTMRMwEQYDVQQIDApXYXNoaW5ndG9uMRAwDgYDVQQH
DAdTZWF0dGxlMRUwEwYDVQQKDAx3b2xmU1NMIEluYy4xFDASBgNVBAsMC0VuZ2lu
ZWVyaW5nMR8wHQYDVQQDDBZjaGFpbkotSUNBMy1ub19wYXRobGVuMR8wHQYJKoZI
hvcNAQkBFhBpbmZvQHdvbGZzc2wuY29tggFkMAwGA1UdEwQFMAMBAf8wCwYDVR0P
BAQDAgEGMA0GCSqGSIb3DQEBCwUAA4IBAQDfTtFmnhr2vRoVOsUWHuKyVIJXopf4
6JqHYphdZxs0xYJxxrR6w6Nki6g9N0fjNMI/xYgIETQ4uyNDcxbLAlg3lB3qdGDM
SkNWNdJiKrenaDyx1guyJblybFcs27V05ZZIGqRlxYLEhGh7MWM/OEvrodeiGq0T
aDRki3lrYJfqQg+0XEJPZDceBmhIfSDqOYbCx4pWhx8+P0ThjGOI4ne3O8K+Hfz3
1Ulz9Tb8Otz2TTN00FTLm+UEBgAf3CHh0iEmpgBZdIq4pIcdIYpXcGD4gYoJEmF/
gdRvBMNXan8gF3Kudth2t2Ne+kDiiMd09RTrl8SlhZXuIizBRi7cM7yb
-----END CERTIFICATE-----
