Certificate:
    Data:
        Version: 3 (0x2)
        Serial Number: 101 (0x65)
    Signature Algorithm: sha256WithRSAEncryption
        Issuer: C = US, ST = Washington, L = Seattle, O = wolfSSL Inc., OU = Engineering, CN = chainI-ICA1-no_pathlen, emailAddress = info@wolfssl.com
        Validity
            Not Before: Jan 29 07:49:18 2021 GMT
            Not After : Oct 26 07:49:18 2023 GMT
        Subject: C = US, ST = Washington, L = Seattle, O = wolfSSL Inc., OU = Engineering, CN = chainI-entity, emailAddress = info@wolfssl.com
        Subject Public Key Info:
            Public Key Algorithm: rsaEncryption
                Public-Key: (2048 bit)
                Modulus:
                    00:ae:d8:a0:cd:91:2c:de:4a:8a:dc:f4:40:cb:48:
                    ff:20:c4:d7:93:76:ea:9f:8e:bd:39:5b:c5:f6:0c:
                    8b:5f:3f:3d:cc:ac:63:94:da:2c:d3:a7:b9:61:bd:
                    88:63:83:5f:ef:58:38:a7:8f:e7:2d:fd:77:53:c8:
                    10:43:16:6e:f7:d6:6e:75:cd:2b:32:7b:59:02:b7:
                    b8:8e:5d:98:bc:a6:74:2c:ec:35:4e:c5:0a:3a:38:
                    15:61:d6:1c:8d:be:b7:86:a8:5c:e8:c6:0f:0d:ff:
                    40:da:72:1f:09:e3:77:de:cf:e7:9e:d8:56:e7:c9:
                    d5:39:e5:e2:0a:94:21:a7:52:d4:b5:17:73:e0:17:
                    18:a1:d6:78:c6:f2:4b:81:d0:71:3a:46:0b:ac:39:
                    c6:76:be:06:c4:99:f6:52:0b:e1:c4:73:f9:70:2e:
                    d1:52:16:c1:61:69:a5:8a:b4:69:23:53:11:65:e2:
                    fc:37:d0:5d:2a:6e:de:82:aa:97:ca:00:04:4e:17:
                    c8:0f:47:63:12:e2:b8:22:6d:e4:86:1e:62:48:46:
                    77:fc:d9:90:0a:e5:da:f9:33:f3:0b:e9:03:0e:96:
                    17:51:9d:41:c6:9a:9c:69:1e:93:18:12:fd:d3:9c:
                    d6:2c:20:a0:5b:81:85:61:11:70:2d:5d:e8:80:92:
                    36:cd
                Exponent: 65537 (0x10001)
        X509v3 extensions:
            X509v3 Subject Key Identifier: 
                94:ED:FE:67:A9:7E:7D:42:C5:C8:18:80:39:EC:95:4D:17:5E:88:0A
            X509v3 Authority Key Identifier: 
                keyid:14:49:A9:3A:96:13:BE:38:8C:7F:69:02:B8:A8:67:64:51:36:B1:9B
                DirName:/C=US/ST=Washington/L=Seattle/O=wolfSSL Inc./OU=Engineering/CN=chainI-ICA2-no_pathlen/emailAddress=info@wolfssl.com
                serial:64

            X509v3 Basic Constraints: 
                CA:FALSE
    Signature Algorithm: sha256WithRSAEncryption
         23:1c:3d:8d:85:1e:6b:51:f0:6c:97:f5:9c:4e:30:40:12:54:
         b3:8f:3c:80:3d:81:39:58:b7:28:21:c1:fd:68:79:19:b3:e6:
         90:6f:62:89:20:08:8b:ca:09:60:34:43:79:07:62:2e:69:b3:
         c0:fc:a5:fc:a7:a1:f4:c1:3e:4b:1f:49:4f:a9:e7:5f:83:63:
         19:b8:0f:ba:97:69:a7:11:5c:b2:b2:2e:cb:b1:94:9e:ac:94:
         a7:07:93:b4:4c:69:b4:a6:2e:68:fb:c4:18:62:b4:a7:fd:4f:
         7e:00:a1:e9:26:42:fa:df:84:44:53:c6:71:03:f9:eb:df:e9:
         3b:36:f2:46:9b:ae:22:4d:20:6e:02:89:cd:46:ee:5f:f8:12:
         f7:6d:97:c3:62:ee:be:90:ef:e3:2f:89:54:89:a2:56:c2:a7:
         f6:28:80:31:a3:9a:49:59:9d:10:f0:45:bc:8c:ea:b2:bc:d2:
         89:1b:e3:c6:12:d2:1e:3e:87:54:67:4a:b9:af:55:60:1d:bb:
         c3:d8:ba:86:51:dd:57:f8:df:9e:6c:4e:5d:4b:c6:31:64:8e:
         9e:50:48:df:ec:1f:ac:01:46:cd:db:95:64:78:5a:32:46:cd:
         ae:3f:39:9f:19:f4:9a:16:f1:1e:f4:ff:99:e1:9c:11:63:1e:
         0d:d5:f1:cc
-----BEGIN CERTIFICATE-----
MIIEvDCCA6SgAwIBAgIBZTANBgkqhkiG9w0BAQsFADCBozELMAkGA1UEBhMCVVMx
EzARBgNVBAgMCldhc2hpbmd0b24xEDAOBgNVBAcMB1NlYXR0bGUxFTATBgNVBAoM
DHdvbGZTU0wgSW5jLjEUMBIGA1UECwwLRW5naW5lZXJpbmcxHzAdBgNVBAMMFmNo
YWluSS1JQ0ExLW5vX3BhdGhsZW4xHzAdBgkqhkiG9w0BCQEWEGluZm9Ad29sZnNz
bC5jb20wHhcNMjEwMTI5MDc0OTE4WhcNMjMxMDI2MDc0OTE4WjCBmjELMAkGA1UE
BhMCVVMxEzARBgNVBAgMCldhc2hpbmd0b24xEDAOBgNVBAcMB1NlYXR0bGUxFTAT
BgNVBAoMDHdvbGZTU0wgSW5jLjEUMBIGA1UECwwLRW5naW5lZXJpbmcxFjAUBgNV
BAMMDWNoYWluSS1lbnRpdHkxHzAdBgkqhkiG9w0BCQEWEGluZm9Ad29sZnNzbC5j
b20wggEiMA0GCSqGSIb3DQEBAQUAA4IBDwAwggEKAoIBAQCu2KDNkSzeSorc9EDL
SP8gxNeTduqfjr05W8X2DItfPz3MrGOU2izTp7lhvYhjg1/vWDinj+ct/XdTyBBD
Fm731m51zSsye1kCt7iOXZi8pnQs7DVOxQo6OBVh1hyNvreGqFzoxg8N/0Dach8J
43fez+ee2FbnydU55eIKlCGnUtS1F3PgFxih1njG8kuB0HE6RgusOcZ2vgbEmfZS
C+HEc/lwLtFSFsFhaaWKtGkjUxFl4vw30F0qbt6CqpfKAAROF8gPR2MS4rgibeSG
HmJIRnf82ZAK5dr5M/ML6QMOlhdRnUHGmpxpHpMYEv3TnNYsIKBbgYVhEXAtXeiA
kjbNAgMBAAGjggEAMIH9MB0GA1UdDgQWBBSU7f5nqX59QsXIGIA57JVNF16ICjCB
0AYDVR0jBIHIMIHFgBQUSak6lhO+OIx/aQK4qGdkUTaxm6GBqaSBpjCBozELMAkG
A1UEBhMCVVMxEzARBgNVBAgMCldhc2hpbmd0b24xEDAOBgNVBAcMB1NlYXR0bGUx
FTATBgNVBAoMDHdvbGZTU0wgSW5jLjEUMBIGA1UECwwLRW5naW5lZXJpbmcxHzAd
BgNVBAMMFmNoYWluSS1JQ0EyLW5vX3BhdGhsZW4xHzAdBgkqhkiG9w0BCQEWEGlu
Zm9Ad29sZnNzbC5jb22CAWQwCQYDVR0TBAIwADANBgkqhkiG9w0BAQsFAAOCAQEA
Ixw9jYUea1HwbJf1nE4wQBJUs488gD2BOVi3KCHB/Wh5GbPmkG9iiSAIi8oJYDRD
eQdiLmmzwPyl/Keh9ME+Sx9JT6nnX4NjGbgPupdppxFcsrIuy7GUnqyUpweTtExp
tKYuaPvEGGK0p/1PfgCh6SZC+t+ERFPGcQP569/pOzbyRpuuIk0gbgKJzUbuX/gS
922Xw2LuvpDv4y+JVImiVsKn9iiAMaOaSVmdEPBFvIzqsrzSiRvjxhLSHj6HVGdK
ua9VYB27w9i6hlHdV/jfnmxOXUvGMWSOnlBI3+wfrAFGzduVZHhaMkbNrj85nxn0
mhbxHvT/meGcEWMeDdXxzA==
-----END CERTIFICATE-----
