Certificate:
    Data:
        Version: 3 (0x2)
        Serial Number: 100 (0x64)
    Signature Algorithm: sha256WithRSAEncryption
        Issuer: C = US, ST = Washington, L = Seattle, O = wolfSSL Inc., OU = Engineering, CN = chainG-ICA5-pathlen20, emailAddress = info@wolfssl.com
        Validity
            Not Before: Jan 29 07:49:15 2021 GMT
            Not After : Oct 26 07:49:15 2023 GMT
        Subject: C = US, ST = Washington, L = Seattle, O = wolfSSL Inc., OU = Engineering, CN = chainG-ICA4-pathlen5, emailAddress = info@wolfssl.com
        Subject Public Key Info:
            Public Key Algorithm: rsaEncryption
                Public-Key: (2048 bit)
                Modulus:
                    00:b3:33:53:18:0b:3a:d8:7c:12:a0:57:20:51:d4:
                    bd:ef:d2:80:3d:dc:da:98:86:97:3d:04:75:4d:1e:
                    06:c9:8b:e1:9e:ed:77:92:7b:5f:f6:44:ff:f9:e4:
                    05:47:6d:7d:5b:50:fc:24:fc:8a:03:6f:7b:be:b2:
                    a6:ec:52:cd:48:19:e5:8a:1d:f8:fd:8e:d5:40:d8:
                    02:7b:90:ec:0a:cf:cb:36:4a:1b:33:16:16:91:47:
                    09:f4:4e:1e:2a:50:2d:13:a5:35:02:e7:c5:92:89:
                    af:93:a7:b4:6a:e4:d3:18:b3:6c:ae:35:15:cf:fe:
                    99:ec:a7:12:64:d2:4b:64:62:ac:de:df:e7:85:5a:
                    7c:0e:58:64:09:eb:28:bb:ea:1f:10:ff:2a:f5:50:
                    c0:6b:12:84:97:dd:f7:f3:0b:2b:8a:a8:e2:8c:ef:
                    89:0d:e2:17:d6:5e:28:99:42:fa:a4:22:c4:df:f7:
                    bc:7e:2c:91:8a:cc:59:08:b0:06:e6:7f:ea:0d:60:
                    c7:83:3e:34:74:e3:da:6b:a0:fe:73:dd:31:79:aa:
                    8a:2b:25:36:a7:99:ea:05:a1:e5:a3:17:59:f1:b7:
                    d7:d8:95:46:38:7a:1f:87:a9:e9:ed:65:7f:94:f5:
                    5d:5b:b9:18:08:70:b6:0b:06:fc:5f:f9:4a:8e:4a:
                    90:0b
                Exponent: 65537 (0x10001)
        X509v3 extensions:
            X509v3 Subject Key Identifier: 
                6F:4E:97:80:FA:EB:95:F7:60:84:F9:62:D2:43:2D:27:49:E5:6C:71
            X509v3 Authority Key Identifier: 
                keyid:AB:E6:7F:88:54:A1:33:51:EA:F3:E8:77:10:4F:B8:CA:78:E4:43:12
                DirName:/C=US/ST=Washington/L=Seattle/O=wolfSSL Inc./OU=Engineering/CN=chainG-ICA6-pathlen10/emailAddress=info@wolfssl.com
                serial:64

            X509v3 Basic Constraints: 
                CA:TRUE, pathlen:5
            X509v3 Key Usage: 
                Certificate Sign, CRL Sign
    Signature Algorithm: sha256WithRSAEncryption
         9a:35:4e:d0:bb:87:fd:69:1b:54:1b:98:07:18:14:c4:59:01:
         21:2c:15:ad:4f:bc:87:d2:ea:bf:b7:0d:14:8f:11:8b:06:97:
         6c:15:a8:d7:79:9f:9a:a2:69:1f:f7:86:7e:ed:d3:31:3a:f9:
         53:e4:55:fc:f1:d9:46:ea:66:37:06:bd:15:14:98:37:27:66:
         b0:14:dc:5e:67:7c:99:90:40:b8:24:3e:1c:4e:ed:db:3c:30:
         03:f5:02:6d:2c:55:7b:db:6a:d7:b9:86:d8:79:d4:f2:bb:6f:
         b5:0a:40:af:dc:4d:b0:7c:6c:8a:59:39:cb:1d:2f:3a:a7:b5:
         f5:1a:3c:c8:c6:7c:e6:b7:c6:69:5f:72:55:ae:04:1c:57:67:
         79:dd:41:71:71:6c:90:3b:a6:c9:5e:db:a2:f1:56:b2:3b:82:
         9f:a1:d2:5e:3e:ff:19:9c:b5:83:cc:dd:a2:07:da:80:ca:e1:
         8c:a3:06:bd:26:e2:3a:8a:b8:32:6f:56:e8:ef:3d:7e:ca:67:
         f6:5a:b4:fe:44:d2:de:7b:de:8b:7b:d1:f7:f8:5f:9b:ce:08:
         26:bd:18:35:da:1c:e5:5c:01:b8:07:34:60:7f:72:0a:31:76:
         9f:ae:c4:63:6e:78:93:ec:0f:98:b5:8d:12:fc:a0:d2:77:0c:
         89:c8:b7:5f
-----BEGIN CERTIFICATE-----
MIIE1TCCA72gAwIBAgIBZDANBgkqhkiG9w0BAQsFADCBojELMAkGA1UEBhMCVVMx
EzARBgNVBAgMCldhc2hpbmd0b24xEDAOBgNVBAcMB1NlYXR0bGUxFTATBgNVBAoM
DHdvbGZTU0wgSW5jLjEUMBIGA1UECwwLRW5naW5lZXJpbmcxHjAcBgNVBAMMFWNo
YWluRy1JQ0E1LXBhdGhsZW4yMDEfMB0GCSqGSIb3DQEJARYQaW5mb0B3b2xmc3Ns
LmNvbTAeFw0yMTAxMjkwNzQ5MTVaFw0yMzEwMjYwNzQ5MTVaMIGhMQswCQYDVQQG
EwJVUzETMBEGA1UECAwKV2FzaGluZ3RvbjEQMA4GA1UEBwwHU2VhdHRsZTEVMBMG
A1UECgwMd29sZlNTTCBJbmMuMRQwEgYDVQQLDAtFbmdpbmVlcmluZzEdMBsGA1UE
AwwUY2hhaW5HLUlDQTQtcGF0aGxlbjUxHzAdBgkqhkiG9w0BCQEWEGluZm9Ad29s
ZnNzbC5jb20wggEiMA0GCSqGSIb3DQEBAQUAA4IBDwAwggEKAoIBAQCzM1MYCzrY
fBKgVyBR1L3v0oA93NqYhpc9BHVNHgbJi+Ge7XeSe1/2RP/55AVHbX1bUPwk/IoD
b3u+sqbsUs1IGeWKHfj9jtVA2AJ7kOwKz8s2ShszFhaRRwn0Th4qUC0TpTUC58WS
ia+Tp7Rq5NMYs2yuNRXP/pnspxJk0ktkYqze3+eFWnwOWGQJ6yi76h8Q/yr1UMBr
EoSX3ffzCyuKqOKM74kN4hfWXiiZQvqkIsTf97x+LJGKzFkIsAbmf+oNYMeDPjR0
49proP5z3TF5qoorJTanmeoFoeWjF1nxt9fYlUY4eh+HqentZX+U9V1buRgIcLYL
Bvxf+UqOSpALAgMBAAGjggETMIIBDzAdBgNVHQ4EFgQUb06XgPrrlfdghPli0kMt
J0nlbHEwgc8GA1UdIwSBxzCBxIAUq+Z/iFShM1Hq8+h3EE+4ynjkQxKhgaikgaUw
gaIxCzAJBgNVBAYTAlVTMRMwEQYDVQQIDApXYXNoaW5ndG9uMRAwDgYDVQQHDAdT
ZWF0dGxlMRUwEwYDVQQKDAx3b2xmU1NMIEluYy4xFDASBgNVBAsMC0VuZ2luZWVy
aW5nMR4wHAYDVQQDDBVjaGFpbkctSUNBNi1wYXRobGVuMTAxHzAdBgkqhkiG9w0B
CQEWEGluZm9Ad29sZnNzbC5jb22CAWQwDwYDVR0TBAgwBgEB/wIBBTALBgNVHQ8E
BAMCAQYwDQYJKoZIhvcNAQELBQADggEBAJo1TtC7h/1pG1QbmAcYFMRZASEsFa1P
vIfS6r+3DRSPEYsGl2wVqNd5n5qiaR/3hn7t0zE6+VPkVfzx2UbqZjcGvRUUmDcn
ZrAU3F5nfJmQQLgkPhxO7ds8MAP1Am0sVXvbate5hth51PK7b7UKQK/cTbB8bIpZ
OcsdLzqntfUaPMjGfOa3xmlfclWuBBxXZ3ndQXFxbJA7psle26LxVrI7gp+h0l4+
/xmctYPM3aIH2oDK4YyjBr0m4jqKuDJvVujvPX7KZ/ZatP5E0t573ot70ff4X5vO
CCa9GDXaHOVcAbgHNGB/cgoxdp+uxGNueJPsD5i1jRL8oNJ3DInIt18=
-----END CERTIFICATE-----
