Certificate:
    Data:
        Version: 3 (0x2)
        Serial Number: 101 (0x65)
    Signature Algorithm: sha256WithRSAEncryption
        Issuer: C = US, ST = Washington, L = Seattle, O = wolfSSL Inc., OU = Engineering, CN = chainF-ICA1-pathlen1, emailAddress = info@wolfssl.com
        Validity
            Not Before: Jan 29 07:49:14 2021 GMT
            Not After : Oct 26 07:49:14 2023 GMT
        Subject: C = US, ST = Washington, L = Seattle, O = wolfSSL Inc., OU = Engineering, CN = chainF-entity, emailAddress = info@wolfssl.com
        Subject Public Key Info:
            Public Key Algorithm: rsaEncryption
                Public-Key: (2048 bit)
                Modulus:
                    00:b6:0f:9c:82:b0:17:03:a3:84:7c:61:4d:e0:6f:
                    86:09:02:57:37:b0:12:8c:5e:63:d7:d8:a8:bd:af:
                    a2:7d:45:6a:79:84:5b:2a:89:93:a7:42:99:49:ee:
                    f4:d2:cf:be:be:00:ab:4d:c8:4d:8d:31:2e:fb:ad:
                    3f:d1:60:0c:d7:6c:7a:4b:9d:82:b3:1e:af:ad:99:
                    a4:a7:86:db:a7:bd:fd:80:40:5d:55:73:8c:e2:dc:
                    b1:da:4d:df:b4:98:07:d8:88:d3:cb:65:36:db:03:
                    08:b1:a4:25:5e:6e:23:85:21:78:52:70:7e:8a:5b:
                    70:af:32:de:c8:ca:bd:7a:5d:69:d8:bf:b9:ad:6b:
                    31:da:18:e3:97:20:75:4d:60:eb:01:03:54:43:05:
                    d3:d6:94:42:c3:24:32:9a:10:d6:b1:f9:93:50:56:
                    0f:6c:4c:8b:66:83:3a:e0:d7:5e:9c:29:12:f1:2a:
                    4c:0e:48:7b:2d:19:46:ef:f3:4d:30:01:8c:6f:a0:
                    d9:3c:4f:f2:26:b4:e2:17:8f:a4:73:e7:b5:3c:ca:
                    c1:42:e6:f3:5f:32:69:84:13:fc:32:44:4f:91:2e:
                    9c:22:ac:1a:f9:66:44:f3:58:56:7e:2e:ae:67:b7:
                    9c:22:cc:46:b4:16:62:24:07:81:1f:be:9e:1a:8c:
                    71:07
                Exponent: 65537 (0x10001)
        X509v3 extensions:
            X509v3 Subject Key Identifier: 
                A2:22:F8:96:64:04:55:32:92:56:7B:CD:82:54:08:92:47:C3:8A:6F
            X509v3 Authority Key Identifier: 
                keyid:67:7D:2B:99:E4:26:51:9B:E9:3C:66:E8:17:D7:AF:54:52:1A:12:47
                DirName:/C=US/ST=Washington/L=Seattle/O=wolfSSL Inc./OU=Engineering/CN=chainF-ICA2-pathlen0/emailAddress=info@wolfssl.com
                serial:64

            X509v3 Basic Constraints: 
                CA:FALSE
    Signature Algorithm: sha256WithRSAEncryption
         00:37:c0:5f:b6:33:52:d4:b3:f3:d5:f0:0f:96:b8:19:61:58:
         8a:bd:a7:c7:08:e8:e7:49:5d:b1:3e:59:81:08:7c:21:43:70:
         cf:76:b7:91:0a:4a:10:bd:62:02:79:8a:db:8f:2e:98:00:1f:
         3c:92:3e:d6:56:2c:a5:1c:85:7c:bc:65:99:37:e5:a8:a6:81:
         f9:76:e4:0f:15:d4:8a:cb:12:02:2d:85:5e:76:03:45:df:fd:
         37:60:0d:33:95:c9:81:e7:7d:69:8f:f0:d8:b0:0f:33:49:25:
         33:10:71:81:d3:9c:2c:a7:b1:a3:4b:08:05:a5:e5:10:1b:b6:
         76:b2:06:9b:d9:31:42:17:19:83:c3:be:7f:6a:66:e5:34:a8:
         04:6c:4f:89:91:6d:74:e1:a6:1a:07:ac:2d:1d:85:5f:e1:bd:
         06:6e:b6:b2:4b:01:10:17:59:11:83:0a:02:e5:06:1f:11:92:
         9e:37:2d:f7:e0:93:d0:49:cc:a8:57:96:bf:fb:89:58:66:69:
         69:ae:f1:f0:4f:3a:88:fb:cf:b4:25:5c:e2:cf:e2:30:df:b1:
         e7:24:e8:d7:4e:73:08:46:03:f0:8c:b3:25:07:4c:95:fc:61:
         40:3a:5f:2a:57:f8:06:f9:d0:c5:71:b3:e1:13:18:45:f7:ce:
         a7:64:3d:39
-----BEGIN CERTIFICATE-----
MIIEtzCCA5+gAwIBAgIBZTANBgkqhkiG9w0BAQsFADCBoTELMAkGA1UEBhMCVVMx
EzARBgNVBAgMCldhc2hpbmd0b24xEDAOBgNVBAcMB1NlYXR0bGUxFTATBgNVBAoM
DHdvbGZTU0wgSW5jLjEUMBIGA1UECwwLRW5naW5lZXJpbmcxHTAbBgNVBAMMFGNo
YWluRi1JQ0ExLXBhdGhsZW4xMR8wHQYJKoZIhvcNAQkBFhBpbmZvQHdvbGZzc2wu
Y29tMB4XDTIxMDEyOTA3NDkxNFoXDTIzMTAyNjA3NDkxNFowgZoxCzAJBgNVBAYT
AlVTMRMwEQYDVQQIDApXYXNoaW5ndG9uMRAwDgYDVQQHDAdTZWF0dGxlMRUwEwYD
VQQKDAx3b2xmU1NMIEluYy4xFDASBgNVBAsMC0VuZ2luZWVyaW5nMRYwFAYDVQQD
DA1jaGFpbkYtZW50aXR5MR8wHQYJKoZIhvcNAQkBFhBpbmZvQHdvbGZzc2wuY29t
MIIBIjANBgkqhkiG9w0BAQEFAAOCAQ8AMIIBCgKCAQEAtg+cgrAXA6OEfGFN4G+G
CQJXN7ASjF5j19iova+ifUVqeYRbKomTp0KZSe700s++vgCrTchNjTEu+60/0WAM
12x6S52Csx6vrZmkp4bbp739gEBdVXOM4tyx2k3ftJgH2IjTy2U22wMIsaQlXm4j
hSF4UnB+iltwrzLeyMq9el1p2L+5rWsx2hjjlyB1TWDrAQNUQwXT1pRCwyQymhDW
sfmTUFYPbEyLZoM64NdenCkS8SpMDkh7LRlG7/NNMAGMb6DZPE/yJrTiF4+kc+e1
PMrBQubzXzJphBP8MkRPkS6cIqwa+WZE81hWfi6uZ7ecIsxGtBZiJAeBH76eGoxx
BwIDAQABo4H+MIH7MB0GA1UdDgQWBBSiIviWZARVMpJWe82CVAiSR8OKbzCBzgYD
VR0jBIHGMIHDgBRnfSuZ5CZRm+k8ZugX169UUhoSR6GBp6SBpDCBoTELMAkGA1UE
BhMCVVMxEzARBgNVBAgMCldhc2hpbmd0b24xEDAOBgNVBAcMB1NlYXR0bGUxFTAT
BgNVBAoMDHdvbGZTU0wgSW5jLjEUMBIGA1UECwwLRW5naW5lZXJpbmcxHTAbBgNV
BAMMFGNoYWluRi1JQ0EyLXBhdGhsZW4wMR8wHQYJKoZIhvcNAQkBFhBpbmZvQHdv
bGZzc2wuY29tggFkMAkGA1UdEwQCMAAwDQYJKoZIhvcNAQELBQADggEBAAA3wF+2
M1LUs/PV8A+WuBlhWIq9p8cI6OdJXbE+WYEIfCFDcM92t5EKShC9YgJ5ituPLpgA
HzySPtZWLKUchXy8ZZk35aimgfl25A8V1IrLEgIthV52A0Xf/TdgDTOVyYHnfWmP
8NiwDzNJJTMQcYHTnCynsaNLCAWl5RAbtnayBpvZMUIXGYPDvn9qZuU0qARsT4mR
bXThphoHrC0dhV/hvQZutrJLARAXWRGDCgLlBh8Rkp43Lffgk9BJzKhXlr/7iVhm
aWmu8fBPOoj7z7QlXOLP4jDfseck6NdOcwhGA/CMsyUHTJX8YUA6XypX+Ab50MVx
s+ETGEX3zqdkPTk=
-----END CERTIFICATE-----
