Certificate:
    Data:
        Version: 3 (0x2)
        Serial Number: 100 (0x64)
    Signature Algorithm: sha256WithRSAEncryption
        Issuer: C = US, ST = Washington, L = Seattle, O = wolfSSL Inc., OU = Engineering, CN = chainH-ICA3-pathlen2, emailAddress = info@wolfssl.com
        Validity
            Not Before: Jan 29 07:49:17 2021 GMT
            Not After : Oct 26 07:49:17 2023 GMT
        Subject: C = US, ST = Washington, L = Seattle, O = wolfSSL Inc., OU = Engineering, CN = chainH-ICA2-pathlen2, emailAddress = info@wolfssl.com
        Subject Public Key Info:
            Public Key Algorithm: rsaEncryption
                Public-Key: (2048 bit)
                Modulus:
                    00:e1:8f:37:08:de:4e:cd:87:9b:74:27:bd:27:f7:
                    b7:8f:00:ec:b3:7b:33:47:e0:64:a2:9c:ac:6a:81:
                    88:29:95:50:99:ea:79:d9:cb:0a:b1:a4:c3:d1:47:
                    03:c7:d8:2b:1f:6b:74:4f:e4:3b:f5:a2:aa:b3:52:
                    4e:49:27:36:9e:4f:3f:c9:c4:cd:8a:48:9c:42:0f:
                    5a:23:a9:d6:b3:4c:4b:8d:eb:c1:e3:6a:c7:1f:9b:
                    88:02:90:a7:4b:7d:44:07:f0:31:31:43:59:75:f4:
                    ce:31:67:d2:62:f8:c8:a5:ab:f4:5b:10:09:5a:22:
                    07:c3:b9:35:52:10:c8:e0:0a:b4:d3:e3:7b:8e:dc:
                    e7:c6:cb:f1:f5:35:37:cf:b1:11:cb:67:4b:19:9e:
                    9f:be:3d:33:e6:a2:93:1a:ba:2e:68:35:f0:94:7d:
                    88:1f:92:07:bb:7a:55:dc:10:79:fa:7e:3b:04:53:
                    7e:0c:13:1f:f0:23:9c:23:3d:01:6b:2a:d0:c2:4e:
                    d3:6f:d4:f3:fc:12:0f:e8:9e:ef:f3:ee:8c:57:26:
                    c6:07:90:b4:47:65:94:54:fb:bc:49:df:ea:d3:f4:
                    05:da:49:d7:45:bb:14:ff:a8:b7:3f:3d:d8:9d:d1:
                    22:59:1d:53:cb:94:66:df:b8:b4:bb:bd:9c:0e:55:
                    c1:33
                Exponent: 65537 (0x10001)
        X509v3 extensions:
            X509v3 Subject Key Identifier: 
                52:2A:A8:59:E3:C3:CF:D6:23:49:F2:97:7C:48:CD:88:D2:82:95:AD
            X509v3 Authority Key Identifier: 
                keyid:AF:69:CD:24:E7:38:37:88:98:5E:47:38:62:A7:D3:1C:A1:B5:58:E5
                DirName:/C=US/ST=Washington/L=Seattle/O=wolfSSL Inc./OU=Engineering/CN=chainH-ICA4-pathlen2/emailAddress=info@wolfssl.com
                serial:64

            X509v3 Basic Constraints: 
                CA:TRUE, pathlen:2
            X509v3 Key Usage: 
                Certificate Sign, CRL Sign
    Signature Algorithm: sha256WithRSAEncryption
         1f:b8:27:0b:3c:4e:47:c7:66:af:01:26:0f:b2:09:7e:fe:68:
         26:be:e8:9a:3d:10:6d:4d:df:e9:06:88:d5:ca:69:1f:c6:48:
         27:07:80:06:4f:d2:ea:3b:2c:65:ac:aa:34:28:d5:57:e7:45:
         03:a8:4b:15:01:1a:46:20:56:87:7c:c7:36:24:de:df:90:f2:
         59:a1:5a:a5:06:25:34:83:da:18:c9:ad:05:ab:6f:b7:bc:c5:
         d5:99:8f:64:53:c8:ef:d1:4a:c7:12:2a:fc:68:d7:78:07:0c:
         64:eb:63:75:8b:5b:58:83:c8:79:20:00:4a:0c:23:67:a9:66:
         96:c8:a0:c1:57:95:e3:40:e9:05:a2:dd:ba:36:5a:af:3a:0d:
         77:40:88:fa:81:e8:50:e4:ee:1c:8b:18:62:df:78:83:45:1f:
         ce:e8:41:ce:0d:2a:d7:12:74:86:67:ae:12:1f:f7:80:94:c8:
         94:52:3f:4a:d3:56:d1:42:38:e0:5f:44:cc:36:2d:76:bf:d3:
         7c:68:8f:b4:2e:d8:aa:ac:74:a5:7f:e3:b6:46:dd:03:39:e0:
         65:42:2f:17:14:f3:86:3b:6b:75:d8:90:55:bb:b5:30:af:c2:
         20:61:7c:8b:cc:de:1b:c7:86:df:76:6d:6d:bc:53:fd:ed:0f:
         37:ff:9c:81
-----BEGIN CERTIFICATE-----
MIIE0zCCA7ugAwIBAgIBZDANBgkqhkiG9w0BAQsFADCBoTELMAkGA1UEBhMCVVMx
EzARBgNVBAgMCldhc2hpbmd0b24xEDAOBgNVBAcMB1NlYXR0bGUxFTATBgNVBAoM
DHdvbGZTU0wgSW5jLjEUMBIGA1UECwwLRW5naW5lZXJpbmcxHTAbBgNVBAMMFGNo
YWluSC1JQ0EzLXBhdGhsZW4yMR8wHQYJKoZIhvcNAQkBFhBpbmZvQHdvbGZzc2wu
Y29tMB4XDTIxMDEyOTA3NDkxN1oXDTIzMTAyNjA3NDkxN1owgaExCzAJBgNVBAYT
AlVTMRMwEQYDVQQIDApXYXNoaW5ndG9uMRAwDgYDVQQHDAdTZWF0dGxlMRUwEwYD
VQQKDAx3b2xmU1NMIEluYy4xFDASBgNVBAsMC0VuZ2luZWVyaW5nMR0wGwYDVQQD
DBRjaGFpbkgtSUNBMi1wYXRobGVuMjEfMB0GCSqGSIb3DQEJARYQaW5mb0B3b2xm
c3NsLmNvbTCCASIwDQYJKoZIhvcNAQEBBQADggEPADCCAQoCggEBAOGPNwjeTs2H
m3QnvSf3t48A7LN7M0fgZKKcrGqBiCmVUJnqednLCrGkw9FHA8fYKx9rdE/kO/Wi
qrNSTkknNp5PP8nEzYpInEIPWiOp1rNMS43rweNqxx+biAKQp0t9RAfwMTFDWXX0
zjFn0mL4yKWr9FsQCVoiB8O5NVIQyOAKtNPje47c58bL8fU1N8+xEctnSxmen749
M+aikxq6Lmg18JR9iB+SB7t6VdwQefp+OwRTfgwTH/AjnCM9AWsq0MJO02/U8/wS
D+ie7/PujFcmxgeQtEdllFT7vEnf6tP0BdpJ10W7FP+otz892J3RIlkdU8uUZt+4
tLu9nA5VwTMCAwEAAaOCARIwggEOMB0GA1UdDgQWBBRSKqhZ48PP1iNJ8pd8SM2I
0oKVrTCBzgYDVR0jBIHGMIHDgBSvac0k5zg3iJheRzhip9McobVY5aGBp6SBpDCB
oTELMAkGA1UEBhMCVVMxEzARBgNVBAgMCldhc2hpbmd0b24xEDAOBgNVBAcMB1Nl
YXR0bGUxFTATBgNVBAoMDHdvbGZTU0wgSW5jLjEUMBIGA1UECwwLRW5naW5lZXJp
bmcxHTAbBgNVBAMMFGNoYWluSC1JQ0E0LXBhdGhsZW4yMR8wHQYJKoZIhvcNAQkB
FhBpbmZvQHdvbGZzc2wuY29tggFkMA8GA1UdEwQIMAYBAf8CAQIwCwYDVR0PBAQD
AgEGMA0GCSqGSIb3DQEBCwUAA4IBAQAfuCcLPE5Hx2avASYPsgl+/mgmvuiaPRBt
Td/pBojVymkfxkgnB4AGT9LqOyxlrKo0KNVX50UDqEsVARpGIFaHfMc2JN7fkPJZ
oVqlBiU0g9oYya0Fq2+3vMXVmY9kU8jv0UrHEir8aNd4Bwxk62N1i1tYg8h5IABK
DCNnqWaWyKDBV5XjQOkFot26NlqvOg13QIj6gehQ5O4cixhi33iDRR/O6EHODSrX
EnSGZ64SH/eAlMiUUj9K01bRQjjgX0TMNi12v9N8aI+0LtiqrHSlf+O2Rt0DOeBl
Qi8XFPOGO2t12JBVu7Uwr8IgYXyLzN4bx4bfdm1tvFP97Q83/5yB
-----END CERTIFICATE-----
