Certificate:
    Data:
        Version: 3 (0x2)
        Serial Number: 101 (0x65)
    Signature Algorithm: sha256WithRSAEncryption
        Issuer: C = US, ST = Washington, L = Seattle, O = wolfSSL Inc., OU = Engineering, CN = chainH-ICA1-pathlen0, emailAddress = info@wolfssl.com
        Validity
            Not Before: Jan 29 07:49:17 2021 GMT
            Not After : Oct 26 07:49:17 2023 GMT
        Subject: C = US, ST = Washington, L = Seattle, O = wolfSSL Inc., OU = Engineering, CN = chainH-entity, emailAddress = info@wolfssl.com
        Subject Public Key Info:
            Public Key Algorithm: rsaEncryption
                Public-Key: (2048 bit)
                Modulus:
                    00:cf:84:a4:de:19:42:57:01:75:d7:dc:e1:9b:a2:
                    e6:f0:0a:c6:0a:ef:e0:6f:26:30:92:05:1c:4c:f5:
                    54:d1:95:23:31:f2:f6:10:0a:b4:7f:6f:29:b2:1e:
                    ad:d5:d1:b0:a5:f2:7d:a3:c5:04:d7:6d:4c:7a:51:
                    24:d4:ed:d2:a2:54:d3:c1:e7:87:2b:91:6e:c9:18:
                    f0:41:f1:6d:b1:99:0d:49:63:dc:55:50:c8:a5:e1:
                    d6:e7:cb:d7:d8:cd:85:59:14:9c:04:5f:7d:69:ff:
                    3b:47:5e:16:18:02:46:3a:cb:69:66:8f:0e:19:50:
                    b0:d9:b4:d5:98:b1:97:0f:b8:f8:11:80:59:e2:b6:
                    23:0e:02:1f:d6:61:1a:fe:fd:d0:6b:d8:7a:d7:1f:
                    58:01:e2:4b:b0:82:2e:a6:3d:9b:72:d3:ea:d2:48:
                    42:fd:18:0e:cb:1e:61:c7:b9:d3:a0:e6:3d:4a:0f:
                    39:73:d0:2d:48:05:05:57:65:c1:55:c9:c8:f1:69:
                    8e:72:bd:19:70:92:08:e6:fd:54:5f:52:47:e1:6d:
                    5a:be:6d:c0:84:3c:19:fc:e1:3d:59:2a:31:de:89:
                    1f:d0:10:2d:4b:4e:df:f0:17:ed:73:69:a5:03:a2:
                    29:73:59:32:6d:a3:12:14:73:c6:3a:ec:7a:a1:f9:
                    46:87
                Exponent: 65537 (0x10001)
        X509v3 extensions:
            X509v3 Subject Key Identifier: 
                CF:70:1F:7C:F9:E3:CC:46:21:D0:D4:F0:3C:A3:AE:EE:AB:B6:0F:5B
            X509v3 Authority Key Identifier: 
                keyid:A2:B8:B2:83:78:10:4B:2D:08:98:8E:71:D9:C6:7C:45:A6:8D:E5:00
                DirName:/C=US/ST=Washington/L=Seattle/O=wolfSSL Inc./OU=Engineering/CN=chainH-ICA2-pathlen2/emailAddress=info@wolfssl.com
                serial:64

            X509v3 Basic Constraints: 
                CA:FALSE
    Signature Algorithm: sha256WithRSAEncryption
         95:a0:1d:09:d2:42:c2:62:63:8f:6f:17:2b:7e:92:ba:0b:9b:
         bc:47:fb:55:fb:c1:44:17:70:8b:cf:24:a7:49:a8:31:40:de:
         c4:ac:3e:a5:b3:f2:65:7e:1a:01:56:3a:4a:43:16:64:1a:f5:
         36:93:1c:91:06:d8:e3:40:88:f2:35:14:c3:b3:f5:84:0e:83:
         0d:ab:27:7d:b2:01:8f:c6:3a:45:31:b3:3d:a0:25:b7:ff:d4:
         1a:e0:73:8f:2f:25:ea:e3:64:03:25:41:12:8d:b3:db:03:87:
         7a:b6:2a:04:7a:9e:2a:49:05:85:d6:44:76:67:f6:1d:97:6b:
         00:39:94:c9:41:90:9d:b7:58:86:c4:ae:22:4a:71:e7:b6:a8:
         50:0b:24:8d:3b:84:99:e3:9d:fd:a0:3c:5c:b1:3d:a5:5f:67:
         1a:ca:2c:0f:29:78:d6:20:0a:20:69:76:9e:91:4c:6c:54:93:
         45:a3:58:d1:37:5f:c1:10:d6:a3:7f:bf:4a:ff:43:b8:40:27:
         e8:9d:a9:b2:2b:4d:c1:04:e4:20:4c:b4:01:e6:2b:ee:2e:ba:
         bb:55:b9:6b:cb:fe:63:7a:58:e8:9f:59:9a:5e:01:52:42:9f:
         7a:df:27:4a:a0:fe:3a:4d:dc:16:51:53:58:3b:70:60:a5:bc:
         45:1b:6b:ac
-----BEGIN CERTIFICATE-----
MIIEtzCCA5+gAwIBAgIBZTANBgkqhkiG9w0BAQsFADCBoTELMAkGA1UEBhMCVVMx
EzARBgNVBAgMCldhc2hpbmd0b24xEDAOBgNVBAcMB1NlYXR0bGUxFTATBgNVBAoM
DHdvbGZTU0wgSW5jLjEUMBIGA1UECwwLRW5naW5lZXJpbmcxHTAbBgNVBAMMFGNo
YWluSC1JQ0ExLXBhdGhsZW4wMR8wHQYJKoZIhvcNAQkBFhBpbmZvQHdvbGZzc2wu
Y29tMB4XDTIxMDEyOTA3NDkxN1oXDTIzMTAyNjA3NDkxN1owgZoxCzAJBgNVBAYT
AlVTMRMwEQYDVQQIDApXYXNoaW5ndG9uMRAwDgYDVQQHDAdTZWF0dGxlMRUwEwYD
VQQKDAx3b2xmU1NMIEluYy4xFDASBgNVBAsMC0VuZ2luZWVyaW5nMRYwFAYDVQQD
DA1jaGFpbkgtZW50aXR5MR8wHQYJKoZIhvcNAQkBFhBpbmZvQHdvbGZzc2wuY29t
MIIBIjANBgkqhkiG9w0BAQEFAAOCAQ8AMIIBCgKCAQEAz4Sk3hlCVwF119zhm6Lm
8ArGCu/gbyYwkgUcTPVU0ZUjMfL2EAq0f28psh6t1dGwpfJ9o8UE121MelEk1O3S
olTTweeHK5FuyRjwQfFtsZkNSWPcVVDIpeHW58vX2M2FWRScBF99af87R14WGAJG
OstpZo8OGVCw2bTVmLGXD7j4EYBZ4rYjDgIf1mEa/v3Qa9h61x9YAeJLsIIupj2b
ctPq0khC/RgOyx5hx7nToOY9Sg85c9AtSAUFV2XBVcnI8WmOcr0ZcJII5v1UX1JH
4W1avm3AhDwZ/OE9WSox3okf0BAtS07f8Bftc2mlA6Ipc1kybaMSFHPGOux6oflG
hwIDAQABo4H+MIH7MB0GA1UdDgQWBBTPcB98+ePMRiHQ1PA8o67uq7YPWzCBzgYD
VR0jBIHGMIHDgBSiuLKDeBBLLQiYjnHZxnxFpo3lAKGBp6SBpDCBoTELMAkGA1UE
BhMCVVMxEzARBgNVBAgMCldhc2hpbmd0b24xEDAOBgNVBAcMB1NlYXR0bGUxFTAT
BgNVBAoMDHdvbGZTU0wgSW5jLjEUMBIGA1UECwwLRW5naW5lZXJpbmcxHTAbBgNV
BAMMFGNoYWluSC1JQ0EyLXBhdGhsZW4yMR8wHQYJKoZIhvcNAQkBFhBpbmZvQHdv
bGZzc2wuY29tggFkMAkGA1UdEwQCMAAwDQYJKoZIhvcNAQELBQADggEBAJWgHQnS
QsJiY49vFyt+kroLm7xH+1X7wUQXcIvPJKdJqDFA3sSsPqWz8mV+GgFWOkpDFmQa
9TaTHJEG2ONAiPI1FMOz9YQOgw2rJ32yAY/GOkUxsz2gJbf/1Brgc48vJerjZAMl
QRKNs9sDh3q2KgR6nipJBYXWRHZn9h2XawA5lMlBkJ23WIbEriJKcee2qFALJI07
hJnjnf2gPFyxPaVfZxrKLA8peNYgCiBpdp6RTGxUk0WjWNE3X8EQ1qN/v0r/Q7hA
J+idqbIrTcEE5CBMtAHmK+4uurtVuWvL/mN6WOifWZpeAVJCn3rfJ0qg/jpN3BZR
U1g7cGClvEUba6w=
-----END CERTIFICATE-----
