Certificate:
    Data:
        Version: 3 (0x2)
        Serial Number: 101 (0x65)
    Signature Algorithm: sha256WithRSAEncryption
        Issuer: C = US, ST = Washington, L = Seattle, O = wolfSSL Inc., OU = Engineering, CN = chainJ-ICA1-no_pathlen, emailAddress = info@wolfssl.com
        Validity
            Not Before: Jan 29 07:49:19 2021 GMT
            Not After : Oct 26 07:49:19 2023 GMT
        Subject: C = US, ST = Washington, L = Seattle, O = wolfSSL Inc., OU = Engineering, CN = chainJ-entity, emailAddress = info@wolfssl.com
        Subject Public Key Info:
            Public Key Algorithm: rsaEncryption
                Public-Key: (2048 bit)
                Modulus:
                    00:af:ff:57:18:69:73:8e:f2:37:75:17:59:2e:45:
                    8b:86:8e:cc:a9:87:c0:a4:b4:86:88:99:65:82:e2:
                    dc:ba:ff:f1:5d:68:bb:bb:eb:ef:f0:2a:7f:7a:5c:
                    55:1d:69:e2:39:62:12:66:ed:cd:33:89:85:33:13:
                    d3:93:f5:00:7e:17:03:c2:aa:55:4a:0c:be:10:6b:
                    7a:b8:ea:30:d3:a3:e1:97:af:fd:84:c5:7f:19:8a:
                    3d:8a:7a:a1:9e:e6:72:e3:88:af:a0:d9:e6:69:0a:
                    b5:81:cf:17:c3:b9:93:b3:25:04:4b:0b:e7:f1:43:
                    50:61:08:a6:cd:6f:59:2b:84:a8:55:a9:92:56:86:
                    67:b9:cf:6a:b8:f4:52:5c:b5:11:65:78:5b:6b:c5:
                    dd:a0:b7:0b:f6:6e:3b:da:b5:75:c0:82:68:51:28:
                    bd:24:c9:7b:44:d1:07:59:14:27:a8:4b:c3:7a:bc:
                    b1:d9:4c:52:6d:71:d3:d5:24:70:f0:32:03:7b:54:
                    49:7a:30:a0:3d:ae:47:23:cb:41:ba:f8:c7:95:ba:
                    ca:1b:1b:39:56:fd:6b:4e:c3:c4:70:25:3d:f2:a4:
                    ab:d2:c5:e5:24:e5:34:5d:aa:be:b7:66:10:57:08:
                    3e:a4:5a:f6:a8:94:f6:dc:6f:a1:82:bf:21:cb:4e:
                    72:c3
                Exponent: 65537 (0x10001)
        X509v3 extensions:
            X509v3 Subject Key Identifier: 
                5E:DB:9E:4F:44:E6:88:6F:9C:FC:E5:ED:A4:17:E6:4C:4A:2C:47:0C
            X509v3 Authority Key Identifier: 
                keyid:4B:F2:A0:E5:8A:11:B5:8F:45:72:43:BB:69:B7:35:CA:D5:63:01:2E
                DirName:/C=US/ST=Washington/L=Seattle/O=wolfSSL Inc./OU=Engineering/CN=chainJ-ICA2-no_pathlen/emailAddress=info@wolfssl.com
                serial:64

            X509v3 Basic Constraints: 
                CA:FALSE
    Signature Algorithm: sha256WithRSAEncryption
         4b:be:e3:e2:0c:72:05:e3:44:71:aa:31:61:ee:7a:31:80:f4:
         70:63:0b:d7:c2:22:42:b3:b4:99:34:fa:8e:77:3c:ae:20:c4:
         57:39:eb:35:db:08:8d:d9:ac:81:59:51:11:51:af:33:2c:59:
         92:b6:e9:98:23:7f:f3:f9:a9:5b:b5:77:72:28:c3:70:27:27:
         0c:e7:04:7f:1c:32:4c:df:67:b6:d1:95:18:77:5b:58:70:72:
         11:a5:e4:23:44:74:62:1c:ef:1d:cd:4c:58:3f:be:a3:68:55:
         de:90:55:4c:73:b0:87:eb:7a:b0:17:b3:9b:96:c6:30:3f:b8:
         e3:4d:e6:24:0d:69:5b:6a:76:bf:a5:ea:2a:e9:ad:be:0f:3a:
         14:54:3d:97:f4:94:ed:79:95:4f:c0:5e:93:a2:72:4a:41:d9:
         5d:01:26:5f:08:08:06:53:19:d9:e5:8d:6a:7c:61:6a:d1:c2:
         76:6f:ed:bb:85:08:2e:d9:e6:c7:40:7c:aa:b9:61:30:25:55:
         53:4a:ef:b5:03:ef:0e:76:cf:60:61:cb:29:e4:41:de:61:32:
         cd:d5:f1:25:4f:ed:f7:b9:96:20:30:76:63:3e:61:88:c7:b0:
         7d:b9:5c:59:06:16:eb:2f:63:c1:8c:14:45:99:ef:13:12:27:
         75:9d:98:b7
-----BEGIN CERTIFICATE-----
MIIEvDCCA6SgAwIBAgIBZTANBgkqhkiG9w0BAQsFADCBozELMAkGA1UEBhMCVVMx
EzARBgNVBAgMCldhc2hpbmd0b24xEDAOBgNVBAcMB1NlYXR0bGUxFTATBgNVBAoM
DHdvbGZTU0wgSW5jLjEUMBIGA1UECwwLRW5naW5lZXJpbmcxHzAdBgNVBAMMFmNo
YWluSi1JQ0ExLW5vX3BhdGhsZW4xHzAdBgkqhkiG9w0BCQEWEGluZm9Ad29sZnNz
bC5jb20wHhcNMjEwMTI5MDc0OTE5WhcNMjMxMDI2MDc0OTE5WjCBmjELMAkGA1UE
BhMCVVMxEzARBgNVBAgMCldhc2hpbmd0b24xEDAOBgNVBAcMB1NlYXR0bGUxFTAT
BgNVBAoMDHdvbGZTU0wgSW5jLjEUMBIGA1UECwwLRW5naW5lZXJpbmcxFjAUBgNV
BAMMDWNoYWluSi1lbnRpdHkxHzAdBgkqhkiG9w0BCQEWEGluZm9Ad29sZnNzbC5j
b20wggEiMA0GCSqGSIb3DQEBAQUAA4IBDwAwggEKAoIBAQCv/1cYaXOO8jd1F1ku
RYuGjsyph8CktIaImWWC4ty6//FdaLu76+/wKn96XFUdaeI5YhJm7c0ziYUzE9OT
9QB+FwPCqlVKDL4Qa3q46jDTo+GXr/2ExX8Zij2KeqGe5nLjiK+g2eZpCrWBzxfD
uZOzJQRLC+fxQ1BhCKbNb1krhKhVqZJWhme5z2q49FJctRFleFtrxd2gtwv2bjva
tXXAgmhRKL0kyXtE0QdZFCeoS8N6vLHZTFJtcdPVJHDwMgN7VEl6MKA9rkcjy0G6
+MeVusobGzlW/WtOw8RwJT3ypKvSxeUk5TRdqr63ZhBXCD6kWvaolPbcb6GCvyHL
TnLDAgMBAAGjggEAMIH9MB0GA1UdDgQWBBRe255PROaIb5z85e2kF+ZMSixHDDCB
0AYDVR0jBIHIMIHFgBRL8qDlihG1j0VyQ7tptzXK1WMBLqGBqaSBpjCBozELMAkG
A1UEBhMCVVMxEzARBgNVBAgMCldhc2hpbmd0b24xEDAOBgNVBAcMB1NlYXR0bGUx
FTATBgNVBAoMDHdvbGZTU0wgSW5jLjEUMBIGA1UECwwLRW5naW5lZXJpbmcxHzAd
BgNVBAMMFmNoYWluSi1JQ0EyLW5vX3BhdGhsZW4xHzAdBgkqhkiG9w0BCQEWEGlu
Zm9Ad29sZnNzbC5jb22CAWQwCQYDVR0TBAIwADANBgkqhkiG9w0BAQsFAAOCAQEA
S77j4gxyBeNEcaoxYe56MYD0cGML18IiQrO0mTT6jnc8riDEVznrNdsIjdmsgVlR
EVGvMyxZkrbpmCN/8/mpW7V3cijDcCcnDOcEfxwyTN9nttGVGHdbWHByEaXkI0R0
YhzvHc1MWD++o2hV3pBVTHOwh+t6sBezm5bGMD+4403mJA1pW2p2v6XqKumtvg86
FFQ9l/SU7XmVT8Bek6JySkHZXQEmXwgIBlMZ2eWNanxhatHCdm/tu4UILtnmx0B8
qrlhMCVVU0rvtQPvDnbPYGHLKeRB3mEyzdXxJU/t97mWIDB2Yz5hiMewfblcWQYW
6y9jwYwURZnvExIndZ2Ytw==
-----END CERTIFICATE-----
Certificate:
    Data:
        Version: 3 (0x2)
        Serial Number: 100 (0x64)
    Signature Algorithm: sha256WithRSAEncryption
        Issuer: C = US, ST = Washington, L = Seattle, O = wolfSSL Inc., OU = Engineering, CN = chainJ-ICA2-no_pathlen, emailAddress = info@wolfssl.com
        Validity
            Not Before: Jan 29 07:49:19 2021 GMT
            Not After : Oct 26 07:49:19 2023 GMT
        Subject: C = US, ST = Washington, L = Seattle, O = wolfSSL Inc., OU = Engineering, CN = chainJ-ICA1-no_pathlen, emailAddress = info@wolfssl.com
        Subject Public Key Info:
            Public Key Algorithm: rsaEncryption
                Public-Key: (2048 bit)
                Modulus:
                    00:ad:af:36:59:ae:1e:7d:ae:ee:67:43:53:cc:4f:
                    0f:5f:5d:74:02:4f:6b:60:b2:18:21:ee:dd:fb:6a:
                    dd:67:20:71:f1:79:4c:a8:5c:e0:f2:b5:ed:e7:0e:
                    3e:75:30:8f:71:bc:97:6e:4b:d8:c0:f9:44:8f:f7:
                    fe:41:ec:2d:e9:41:3d:0a:a3:e3:fb:06:a3:bd:94:
                    1f:af:dd:66:a7:41:54:65:df:ca:9b:4e:93:32:6c:
                    43:50:20:9f:02:5b:14:24:3a:41:ae:78:c7:24:c0:
                    0f:c6:07:00:8c:8d:53:ed:43:35:f6:fd:99:55:84:
                    8c:34:55:9c:f6:97:86:d6:97:af:f3:97:71:eb:f1:
                    43:0d:00:3b:5c:81:91:63:0c:3c:c5:c5:82:97:55:
                    da:bf:d4:5b:8d:ba:81:10:19:00:1d:c2:f2:f7:e5:
                    98:2f:26:c5:ea:2b:5b:fb:ac:4e:c7:f7:3d:2a:38:
                    ab:6a:89:9e:aa:89:2b:d9:92:90:b1:e2:2f:ce:d5:
                    19:d1:e8:03:04:11:c4:01:a4:5d:fa:46:c9:a2:47:
                    36:53:17:db:4a:cd:ad:3c:b7:ab:62:79:46:81:72:
                    5b:86:73:85:c1:8f:ef:97:9f:2e:13:95:a9:78:23:
                    02:8e:f7:ca:60:2a:bc:81:1c:23:da:a1:26:c4:35:
                    9b:5f
                Exponent: 65537 (0x10001)
        X509v3 extensions:
            X509v3 Subject Key Identifier: 
                4B:F2:A0:E5:8A:11:B5:8F:45:72:43:BB:69:B7:35:CA:D5:63:01:2E
            X509v3 Authority Key Identifier: 
                keyid:07:53:C2:0A:3D:FD:88:C7:44:07:29:60:E4:3E:B8:FB:D7:3A:32:9E
                DirName:/C=US/ST=Washington/L=Seattle/O=wolfSSL Inc./OU=Engineering/CN=chainJ-ICA3-no_pathlen/emailAddress=info@wolfssl.com
                serial:64

            X509v3 Basic Constraints: 
                CA:TRUE
            X509v3 Key Usage: 
                Certificate Sign, CRL Sign
    Signature Algorithm: sha256WithRSAEncryption
         df:4e:d1:66:9e:1a:f6:bd:1a:15:3a:c5:16:1e:e2:b2:54:82:
         57:a2:97:f8:e8:9a:87:62:98:5d:67:1b:34:c5:82:71:c6:b4:
         7a:c3:a3:64:8b:a8:3d:37:47:e3:34:c2:3f:c5:88:08:11:34:
         38:bb:23:43:73:16:cb:02:58:37:94:1d:ea:74:60:cc:4a:43:
         56:35:d2:62:2a:b7:a7:68:3c:b1:d6:0b:b2:25:b9:72:6c:57:
         2c:db:b5:74:e5:96:48:1a:a4:65:c5:82:c4:84:68:7b:31:63:
         3f:38:4b:eb:a1:d7:a2:1a:ad:13:68:34:64:8b:79:6b:60:97:
         ea:42:0f:b4:5c:42:4f:64:37:1e:06:68:48:7d:20:ea:39:86:
         c2:c7:8a:56:87:1f:3e:3f:44:e1:8c:63:88:e2:77:b7:3b:c2:
         be:1d:fc:f7:d5:49:73:f5:36:fc:3a:dc:f6:4d:33:74:d0:54:
         cb:9b:e5:04:06:00:1f:dc:21:e1:d2:21:26:a6:00:59:74:8a:
         b8:a4:87:1d:21:8a:57:70:60:f8:81:8a:09:12:61:7f:81:d4:
         6f:04:c3:57:6a:7f:20:17:72:ae:76:d8:76:b7:63:5e:fa:40:
         e2:88:c7:74:f5:14:eb:97:c4:a5:85:95:ee:22:2c:c1:46:2e:
         dc:33:bc:9b
-----BEGIN CERTIFICATE-----
MIIE1jCCA76gAwIBAgIBZDANBgkqhkiG9w0BAQsFADCBozELMAkGA1UEBhMCVVMx
EzARBgNVBAgMCldhc2hpbmd0b24xEDAOBgNVBAcMB1NlYXR0bGUxFTATBgNVBAoM
DHdvbGZTU0wgSW5jLjEUMBIGA1UECwwLRW5naW5lZXJpbmcxHzAdBgNVBAMMFmNo
YWluSi1JQ0EyLW5vX3BhdGhsZW4xHzAdBgkqhkiG9w0BCQEWEGluZm9Ad29sZnNz
bC5jb20wHhcNMjEwMTI5MDc0OTE5WhcNMjMxMDI2MDc0OTE5WjCBozELMAkGA1UE
BhMCVVMxEzARBgNVBAgMCldhc2hpbmd0b24xEDAOBgNVBAcMB1NlYXR0bGUxFTAT
BgNVBAoMDHdvbGZTU0wgSW5jLjEUMBIGA1UECwwLRW5naW5lZXJpbmcxHzAdBgNV
BAMMFmNoYWluSi1JQ0ExLW5vX3BhdGhsZW4xHzAdBgkqhkiG9w0BCQEWEGluZm9A
d29sZnNzbC5jb20wggEiMA0GCSqGSIb3DQEBAQUAA4IBDwAwggEKAoIBAQCtrzZZ
rh59ru5nQ1PMTw9fXXQCT2tgshgh7t37at1nIHHxeUyoXODyte3nDj51MI9xvJdu
S9jA+USP9/5B7C3pQT0Ko+P7BqO9lB+v3WanQVRl38qbTpMybENQIJ8CWxQkOkGu
eMckwA/GBwCMjVPtQzX2/ZlVhIw0VZz2l4bWl6/zl3Hr8UMNADtcgZFjDDzFxYKX
Vdq/1FuNuoEQGQAdwvL35ZgvJsXqK1v7rE7H9z0qOKtqiZ6qiSvZkpCx4i/O1RnR
6AMEEcQBpF36RsmiRzZTF9tKza08t6tieUaBcluGc4XBj++Xny4Tlal4IwKO98pg
KryBHCPaoSbENZtfAgMBAAGjggERMIIBDTAdBgNVHQ4EFgQUS/Kg5YoRtY9FckO7
abc1ytVjAS4wgdAGA1UdIwSByDCBxYAUB1PCCj39iMdEBylg5D64+9c6Mp6hgamk
gaYwgaMxCzAJBgNVBAYTAlVTMRMwEQYDVQQIDApXYXNoaW5ndG9uMRAwDgYDVQQH
DAdTZWF0dGxlMRUwEwYDVQQKDAx3b2xmU1NMIEluYy4xFDASBgNVBAsMC0VuZ2lu
ZWVyaW5nMR8wHQYDVQQDDBZjaGFpbkotSUNBMy1ub19wYXRobGVuMR8wHQYJKoZI
hvcNAQkBFhBpbmZvQHdvbGZzc2wuY29tggFkMAwGA1UdEwQFMAMBAf8wCwYDVR0P
BAQDAgEGMA0GCSqGSIb3DQEBCwUAA4IBAQDfTtFmnhr2vRoVOsUWHuKyVIJXopf4
6JqHYphdZxs0xYJxxrR6w6Nki6g9N0fjNMI/xYgIETQ4uyNDcxbLAlg3lB3qdGDM
SkNWNdJiKrenaDyx1guyJblybFcs27V05ZZIGqRlxYLEhGh7MWM/OEvrodeiGq0T
aDRki3lrYJfqQg+0XEJPZDceBmhIfSDqOYbCx4pWhx8+P0ThjGOI4ne3O8K+Hfz3
1Ulz9Tb8Otz2TTN00FTLm+UEBgAf3CHh0iEmpgBZdIq4pIcdIYpXcGD4gYoJEmF/
gdRvBMNXan8gF3Kudth2t2Ne+kDiiMd09RTrl8SlhZXuIizBRi7cM7yb
-----END CERTIFICATE-----
Certificate:
    Data:
        Version: 3 (0x2)
        Serial Number: 100 (0x64)
    Signature Algorithm: sha256WithRSAEncryption
        Issuer: C = US, ST = Washington, L = Seattle, O = wolfSSL Inc., OU = Engineering, CN = chainJ-ICA3-no_pathlen, emailAddress = info@wolfssl.com
        Validity
            Not Before: Jan 29 07:49:19 2021 GMT
            Not After : Oct 26 07:49:19 2023 GMT
        Subject: C = US, ST = Washington, L = Seattle, O = wolfSSL Inc., OU = Engineering, CN = chainJ-ICA2-no_pathlen, emailAddress = info@wolfssl.com
        Subject Public Key Info:
            Public Key Algorithm: rsaEncryption
                Public-Key: (2048 bit)
                Modulus:
                    00:e2:94:7c:f8:12:13:ab:17:05:26:89:fa:89:ea:
                    70:a0:61:4a:75:50:87:7c:d8:d4:e3:e7:70:3c:9c:
                    20:a4:18:ed:b7:ee:bd:7a:0c:9f:a2:10:34:f8:ff:
                    0f:e0:3d:9a:11:cf:8d:0c:20:e7:ab:67:d6:64:69:
                    80:96:45:52:79:3c:5e:cc:3a:bb:4b:99:55:9d:a4:
                    21:c6:96:23:68:a6:5e:63:1f:e5:7d:61:0e:91:ab:
                    69:d1:30:20:ea:3d:ca:bf:6c:56:95:24:25:ec:6c:
                    bc:46:d9:7b:91:39:36:60:09:f5:43:6f:bb:87:9b:
                    53:88:47:1d:d6:36:fe:1a:af:8a:39:e0:6a:b5:51:
                    a1:de:df:3d:8c:d2:75:04:bb:34:bb:39:3b:8d:d9:
                    cf:36:07:25:f2:0b:c8:eb:03:0e:39:1c:01:35:b2:
                    2e:7f:d5:e4:f2:8a:0e:f0:01:7b:4e:db:36:c2:cc:
                    83:da:81:87:be:3a:fa:3b:14:85:f2:fe:cd:44:34:
                    7a:45:ba:14:97:c5:6a:31:ae:a0:0b:18:d6:6d:cd:
                    96:ed:ee:15:ed:fa:42:90:f0:c8:fe:b9:ff:fe:82:
                    78:f2:01:ec:4a:38:b6:67:a8:40:c9:82:5a:5f:48:
                    f0:36:06:79:78:f4:d9:b2:e3:6b:c6:f8:e2:1e:3d:
                    a7:c7
                Exponent: 65537 (0x10001)
        X509v3 extensions:
            X509v3 Subject Key Identifier: 
                07:53:C2:0A:3D:FD:88:C7:44:07:29:60:E4:3E:B8:FB:D7:3A:32:9E
            X509v3 Authority Key Identifier: 
                keyid:E8:DA:E8:00:62:33:CD:7E:AB:54:D8:AC:B3:EE:C7:47:98:E4:64:57
                DirName:/C=US/ST=Washington/L=Seattle/O=wolfSSL Inc./OU=Engineering/CN=chainJ-ICA4-pathlen2/emailAddress=info@wolfssl.com
                serial:64

            X509v3 Basic Constraints: 
                CA:TRUE
            X509v3 Key Usage: 
                Certificate Sign, CRL Sign
    Signature Algorithm: sha256WithRSAEncryption
         42:23:77:e7:76:d1:bc:e2:e1:0d:b3:25:c8:cd:35:70:d0:75:
         d1:8e:8b:be:43:18:61:c9:23:99:bf:6e:98:53:76:a1:f1:b9:
         93:9f:99:a0:9b:c0:4a:0f:8b:7f:a2:44:37:0b:07:aa:5e:62:
         1b:fd:58:2d:8d:78:f8:58:97:5e:3f:7e:8d:e7:88:8c:7a:b8:
         bf:f6:e4:2e:28:52:83:33:09:69:23:52:ad:c5:55:40:65:40:
         85:66:0a:7f:7c:c4:84:47:97:cc:a7:ab:f1:d8:84:32:08:3f:
         f0:4b:9c:cd:98:ca:09:92:bc:40:9a:e4:8c:7f:68:4d:10:7d:
         2c:6f:6d:56:cf:1d:ff:c1:ed:ef:e2:17:47:39:bc:b0:fd:24:
         5a:31:82:60:5d:37:9f:2c:c0:4e:35:7c:86:84:ab:4f:8e:8a:
         15:3c:f3:3e:7d:19:48:e0:77:03:2e:2c:5d:66:75:5d:18:a1:
         36:83:78:ee:15:70:bd:12:c3:e2:da:58:29:34:fe:d1:8e:fa:
         c4:61:de:4f:8b:d5:bb:d1:22:fe:e4:79:20:0b:c7:b8:12:60:
         d6:d7:c4:51:a4:71:cb:29:e7:a3:d4:32:ff:5b:c4:88:6c:db:
         b6:f5:f2:4f:e8:51:40:fb:59:86:ce:db:2e:cb:7f:5b:9c:48:
         78:94:2d:14
-----BEGIN CERTIFICATE-----
MIIE1DCCA7ygAwIBAgIBZDANBgkqhkiG9w0BAQsFADCBozELMAkGA1UEBhMCVVMx
EzARBgNVBAgMCldhc2hpbmd0b24xEDAOBgNVBAcMB1NlYXR0bGUxFTATBgNVBAoM
DHdvbGZTU0wgSW5jLjEUMBIGA1UECwwLRW5naW5lZXJpbmcxHzAdBgNVBAMMFmNo
YWluSi1JQ0EzLW5vX3BhdGhsZW4xHzAdBgkqhkiG9w0BCQEWEGluZm9Ad29sZnNz
bC5jb20wHhcNMjEwMTI5MDc0OTE5WhcNMjMxMDI2MDc0OTE5WjCBozELMAkGA1UE
BhMCVVMxEzARBgNVBAgMCldhc2hpbmd0b24xEDAOBgNVBAcMB1NlYXR0bGUxFTAT
BgNVBAoMDHdvbGZTU0wgSW5jLjEUMBIGA1UECwwLRW5naW5lZXJpbmcxHzAdBgNV
BAMMFmNoYWluSi1JQ0EyLW5vX3BhdGhsZW4xHzAdBgkqhkiG9w0BCQEWEGluZm9A
d29sZnNzbC5jb20wggEiMA0GCSqGSIb3DQEBAQUAA4IBDwAwggEKAoIBAQDilHz4
EhOrFwUmifqJ6nCgYUp1UId82NTj53A8nCCkGO237r16DJ+iEDT4/w/gPZoRz40M
IOerZ9ZkaYCWRVJ5PF7MOrtLmVWdpCHGliNopl5jH+V9YQ6Rq2nRMCDqPcq/bFaV
JCXsbLxG2XuROTZgCfVDb7uHm1OIRx3WNv4ar4o54Gq1UaHe3z2M0nUEuzS7OTuN
2c82ByXyC8jrAw45HAE1si5/1eTyig7wAXtO2zbCzIPagYe+Ovo7FIXy/s1ENHpF
uhSXxWoxrqALGNZtzZbt7hXt+kKQ8Mj+uf/+gnjyAexKOLZnqEDJglpfSPA2Bnl4
9Nmy42vG+OIePafHAgMBAAGjggEPMIIBCzAdBgNVHQ4EFgQUB1PCCj39iMdEBylg
5D64+9c6Mp4wgc4GA1UdIwSBxjCBw4AU6NroAGIzzX6rVNiss+7HR5jkZFehgaek
gaQwgaExCzAJBgNVBAYTAlVTMRMwEQYDVQQIDApXYXNoaW5ndG9uMRAwDgYDVQQH
DAdTZWF0dGxlMRUwEwYDVQQKDAx3b2xmU1NMIEluYy4xFDASBgNVBAsMC0VuZ2lu
ZWVyaW5nMR0wGwYDVQQDDBRjaGFpbkotSUNBNC1wYXRobGVuMjEfMB0GCSqGSIb3
DQEJARYQaW5mb0B3b2xmc3NsLmNvbYIBZDAMBgNVHRMEBTADAQH/MAsGA1UdDwQE
AwIBBjANBgkqhkiG9w0BAQsFAAOCAQEAQiN353bRvOLhDbMlyM01cNB10Y6LvkMY
Yckjmb9umFN2ofG5k5+ZoJvASg+Lf6JENwsHql5iG/1YLY14+FiXXj9+jeeIjHq4
v/bkLihSgzMJaSNSrcVVQGVAhWYKf3zEhEeXzKer8diEMgg/8EuczZjKCZK8QJrk
jH9oTRB9LG9tVs8d/8Ht7+IXRzm8sP0kWjGCYF03nyzATjV8hoSrT46KFTzzPn0Z
SOB3Ay4sXWZ1XRihNoN47hVwvRLD4tpYKTT+0Y76xGHeT4vVu9Ei/uR5IAvHuBJg
1tfEUaRxyynno9Qy/1vEiGzbtvXyT+hRQPtZhs7bLst/W5xIeJQtFA==
-----END CERTIFICATE-----
Certificate:
    Data:
        Version: 3 (0x2)
        Serial Number: 100 (0x64)
    Signature Algorithm: sha256WithRSAEncryption
        Issuer: C = US, ST = Washington, L = Seattle, O = wolfSSL Inc., OU = Engineering, CN = chainJ-ICA4-pathlen2, emailAddress = info@wolfssl.com
        Validity
            Not Before: Jan 29 07:49:19 2021 GMT
            Not After : Oct 26 07:49:19 2023 GMT
        Subject: C = US, ST = Washington, L = Seattle, O = wolfSSL Inc., OU = Engineering, CN = chainJ-ICA3-no_pathlen, emailAddress = info@wolfssl.com
        Subject Public Key Info:
            Public Key Algorithm: rsaEncryption
                Public-Key: (2048 bit)
                Modulus:
                    00:a3:11:78:51:af:bb:58:f8:7f:b9:d3:0d:c5:f2:
                    32:7b:cc:2f:22:c8:a4:36:6d:3b:de:83:46:bd:ca:
                    70:95:a2:ec:fe:ed:67:fe:ca:b6:31:a6:b1:dd:d0:
                    e9:07:2d:71:62:fc:d5:04:d6:fb:d7:4b:48:16:7c:
                    d3:bc:c4:9d:d2:c2:4c:4e:84:c5:12:55:cb:0e:a0:
                    e0:5f:3c:93:6a:31:a5:cb:72:07:a5:76:f8:06:b4:
                    19:cd:ee:4a:c7:fb:7e:c0:e8:01:81:8d:4a:1d:01:
                    4c:7e:5f:95:3d:e7:7a:92:e0:24:ce:05:e0:03:5d:
                    2c:e2:fb:86:58:65:b7:21:ed:aa:36:e2:79:77:23:
                    af:24:dd:72:b3:c7:aa:89:86:88:d4:96:f6:bc:ed:
                    9a:cc:e4:b4:3f:1e:5b:5d:f9:24:62:f8:01:43:f7:
                    ca:80:23:1b:80:7c:9f:6b:0e:cf:8b:51:cf:68:6d:
                    63:12:cf:f7:53:88:b4:06:8e:13:52:4c:47:48:ec:
                    86:be:17:f9:d6:54:33:b7:95:bf:c8:a4:4b:8d:61:
                    67:92:dd:0b:67:84:01:40:f6:ac:96:f2:6c:05:8f:
                    39:55:e2:fe:18:ba:90:ee:ca:10:e5:48:90:8a:b1:
                    4c:6f:e8:46:9e:8d:5c:fc:ac:a4:78:b4:97:af:87:
                    85:2b
                Exponent: 65537 (0x10001)
        X509v3 extensions:
            X509v3 Subject Key Identifier: 
                E8:DA:E8:00:62:33:CD:7E:AB:54:D8:AC:B3:EE:C7:47:98:E4:64:57
            X509v3 Authority Key Identifier: 
                keyid:BD:4C:AD:2D:B2:C7:8B:1B:F9:BC:8E:3C:74:F2:49:88:34:1D:2D:AD
                DirName:/C=US/ST=Montana/L=Bozeman/O=Sawtooth/OU=Consulting/CN=www.wolfssl.com/emailAddress=info@wolfssl.com
                serial:64

            X509v3 Basic Constraints: 
                CA:TRUE
            X509v3 Key Usage: 
                Certificate Sign, CRL Sign
    Signature Algorithm: sha256WithRSAEncryption
         63:11:18:e9:02:fd:32:6d:84:fb:9d:f5:d5:49:5f:4b:f7:fe:
         aa:71:5b:ea:ae:96:25:c9:7d:3e:a9:d0:af:de:2c:00:51:1a:
         8f:00:9c:e3:0d:f0:86:bc:f4:b2:0e:ce:37:17:0d:6a:fa:fa:
         96:ee:b6:24:a4:05:d6:02:d2:51:92:11:60:3f:6e:83:19:5e:
         25:a1:eb:3d:cf:c6:73:86:b9:a7:3f:4c:dc:c4:5b:89:c5:0c:
         e8:b0:79:6a:45:33:a2:3a:af:54:55:67:7a:5c:de:db:91:4a:
         26:89:4a:ff:9d:d1:bb:ab:e5:ab:f7:66:73:32:34:00:9d:86:
         0b:14:1d:ff:9c:63:4c:77:15:bb:17:b8:0b:e0:d0:1f:b5:27:
         68:36:af:8f:86:87:1b:1e:15:5e:25:3f:d9:00:33:21:49:a2:
         0a:8e:e5:4d:1a:72:74:95:79:27:6c:cd:22:67:f8:c4:3d:6c:
         54:43:29:85:03:f8:52:0e:88:92:d7:b3:66:1c:47:fa:8e:07:
         8d:63:f0:b0:8c:76:10:51:0e:0e:23:6f:42:08:e6:f2:9e:92:
         07:d5:ad:05:af:eb:a2:85:48:14:93:45:f1:7d:fb:5e:47:0a:
         a1:b9:cc:04:65:94:21:4f:a4:de:b4:f5:c4:83:c5:77:cd:8b:
         cd:8d:3d:81
-----BEGIN CERTIFICATE-----
MIIExDCCA6ygAwIBAgIBZDANBgkqhkiG9w0BAQsFADCBoTELMAkGA1UEBhMCVVMx
EzARBgNVBAgMCldhc2hpbmd0b24xEDAOBgNVBAcMB1NlYXR0bGUxFTATBgNVBAoM
DHdvbGZTU0wgSW5jLjEUMBIGA1UECwwLRW5naW5lZXJpbmcxHTAbBgNVBAMMFGNo
YWluSi1JQ0E0LXBhdGhsZW4yMR8wHQYJKoZIhvcNAQkBFhBpbmZvQHdvbGZzc2wu
Y29tMB4XDTIxMDEyOTA3NDkxOVoXDTIzMTAyNjA3NDkxOVowgaMxCzAJBgNVBAYT
AlVTMRMwEQYDVQQIDApXYXNoaW5ndG9uMRAwDgYDVQQHDAdTZWF0dGxlMRUwEwYD
VQQKDAx3b2xmU1NMIEluYy4xFDASBgNVBAsMC0VuZ2luZWVyaW5nMR8wHQYDVQQD
DBZjaGFpbkotSUNBMy1ub19wYXRobGVuMR8wHQYJKoZIhvcNAQkBFhBpbmZvQHdv
bGZzc2wuY29tMIIBIjANBgkqhkiG9w0BAQEFAAOCAQ8AMIIBCgKCAQEAoxF4Ua+7
WPh/udMNxfIye8wvIsikNm073oNGvcpwlaLs/u1n/sq2Maax3dDpBy1xYvzVBNb7
10tIFnzTvMSd0sJMToTFElXLDqDgXzyTajGly3IHpXb4BrQZze5Kx/t+wOgBgY1K
HQFMfl+VPed6kuAkzgXgA10s4vuGWGW3Ie2qNuJ5dyOvJN1ys8eqiYaI1Jb2vO2a
zOS0Px5bXfkkYvgBQ/fKgCMbgHyfaw7Pi1HPaG1jEs/3U4i0Bo4TUkxHSOyGvhf5
1lQzt5W/yKRLjWFnkt0LZ4QBQPaslvJsBY85VeL+GLqQ7soQ5UiQirFMb+hGno1c
/KykeLSXr4eFKwIDAQABo4IBATCB/jAdBgNVHQ4EFgQU6NroAGIzzX6rVNiss+7H
R5jkZFcwgcEGA1UdIwSBuTCBtoAUvUytLbLHixv5vI48dPJJiDQdLa2hgZqkgZcw
gZQxCzAJBgNVBAYTAlVTMRAwDgYDVQQIDAdNb250YW5hMRAwDgYDVQQHDAdCb3pl
bWFuMREwDwYDVQQKDAhTYXd0b290aDETMBEGA1UECwwKQ29uc3VsdGluZzEYMBYG
A1UEAwwPd3d3LndvbGZzc2wuY29tMR8wHQYJKoZIhvcNAQkBFhBpbmZvQHdvbGZz
c2wuY29tggFkMAwGA1UdEwQFMAMBAf8wCwYDVR0PBAQDAgEGMA0GCSqGSIb3DQEB
CwUAA4IBAQBjERjpAv0ybYT7nfXVSV9L9/6qcVvqrpYlyX0+qdCv3iwAURqPAJzj
DfCGvPSyDs43Fw1q+vqW7rYkpAXWAtJRkhFgP26DGV4loes9z8ZzhrmnP0zcxFuJ
xQzosHlqRTOiOq9UVWd6XN7bkUomiUr/ndG7q+Wr92ZzMjQAnYYLFB3/nGNMdxW7
F7gL4NAftSdoNq+PhocbHhVeJT/ZADMhSaIKjuVNGnJ0lXknbM0iZ/jEPWxUQymF
A/hSDoiS17NmHEf6jgeNY/CwjHYQUQ4OI29CCObynpIH1a0Fr+uihUgUk0Xxffte
RwqhucwEZZQhT6TetPXEg8V3zYvNjT2B
-----END CERTIFICATE-----
Certificate:
    Data:
        Version: 3 (0x2)
        Serial Number: 100 (0x64)
    Signature Algorithm: sha256WithRSAEncryption
        Issuer: C = US, ST = Montana, L = Bozeman, O = Sawtooth, OU = Consulting, CN = www.wolfssl.com, emailAddress = info@wolfssl.com
        Validity
            Not Before: Jan 29 07:49:18 2021 GMT
            Not After : Oct 26 07:49:18 2023 GMT
        Subject: C = US, ST = Washington, L = Seattle, O = wolfSSL Inc., OU = Engineering, CN = chainJ-ICA4-pathlen2, emailAddress = info@wolfssl.com
        Subject Public Key Info:
            Public Key Algorithm: rsaEncryption
                Public-Key: (2048 bit)
                Modulus:
                    00:ae:6d:da:cc:71:df:85:ef:5d:40:15:a4:a9:ca:
                    33:be:10:68:0e:e7:90:8e:01:d3:26:75:34:70:a3:
                    d0:c5:12:1e:16:8d:76:01:78:83:29:1e:2c:3d:c3:
                    00:93:1f:9f:2d:59:05:a7:f4:d3:86:b5:13:ea:18:
                    98:8a:be:d4:fc:dd:5c:9f:b6:7d:64:97:22:8a:85:
                    9f:61:1f:68:d9:26:81:e4:8e:5d:e9:32:d3:f1:b1:
                    7e:46:7e:1e:b4:49:3c:28:a3:c8:5c:ac:90:50:23:
                    08:50:f1:52:82:a0:5f:ba:d2:c8:c7:67:aa:9c:b1:
                    2d:84:d2:73:55:3d:89:e6:29:2c:74:d4:98:60:a5:
                    58:3e:c1:e1:92:e5:5b:24:62:65:60:c5:21:0d:71:
                    58:c1:08:53:12:6a:cf:7f:e8:fc:38:c7:a9:fb:74:
                    76:d7:f7:16:64:85:48:5c:7a:29:f0:c1:af:8e:ac:
                    bc:5f:8e:88:fd:a3:ea:65:0b:be:d8:b0:bd:e8:6f:
                    bd:ee:24:23:6b:68:09:6e:4d:51:cb:67:1a:7f:94:
                    09:45:95:8b:b1:7b:dd:4d:80:9b:e5:ec:13:db:dd:
                    ea:df:80:e8:c7:3f:38:dd:e3:30:c3:df:82:37:7a:
                    cd:00:44:28:28:64:7a:07:90:27:73:35:29:92:b8:
                    94:55
                Exponent: 65537 (0x10001)
        X509v3 extensions:
            X509v3 Subject Key Identifier: 
                BD:4C:AD:2D:B2:C7:8B:1B:F9:BC:8E:3C:74:F2:49:88:34:1D:2D:AD
            X509v3 Authority Key Identifier: 
                keyid:27:8E:67:11:74:C3:26:1D:3F:ED:33:63:B3:A4:D8:1D:30:E5:E8:D5
                DirName:/C=US/ST=Montana/L=Bozeman/O=Sawtooth/OU=Consulting/CN=www.wolfssl.com/emailAddress=info@wolfssl.com
                serial:5E:BA:A4:F4:B1:F7:48:25:E3:5F:9B:DA:A1:13:ED:D5:2B:03:67:15

            X509v3 Basic Constraints: 
                CA:TRUE, pathlen:2
            X509v3 Key Usage: 
                Certificate Sign, CRL Sign
    Signature Algorithm: sha256WithRSAEncryption
         be:27:31:df:48:89:02:00:f6:fd:81:f2:4e:c2:a2:ae:35:6c:
         d3:f4:61:9c:f9:05:1d:eb:af:91:da:ce:24:28:97:f7:ab:93:
         c3:b8:96:e5:d2:f1:78:eb:8e:01:08:f3:a3:fa:7b:59:22:cb:
         57:5b:21:2a:d7:3d:ac:05:2a:b0:e3:d8:de:21:c2:e2:ff:49:
         75:8a:b1:85:18:3f:31:79:d3:53:9e:e9:e9:98:c2:8f:6a:d3:
         12:28:37:60:04:75:dd:32:6d:6e:7b:38:1f:f4:cc:f6:d5:cb:
         82:34:90:76:23:93:da:82:31:7e:6e:c5:77:50:1a:21:c0:cd:
         69:ac:b1:ab:c7:d0:e4:a8:a2:87:c7:c7:2c:d0:fa:1f:12:5a:
         1b:b6:cf:4c:ed:32:99:a0:f5:be:7f:d6:8d:40:71:f0:72:0b:
         ce:9e:51:e5:16:f4:d7:7e:93:4d:9a:87:bd:64:21:ac:33:01:
         97:1a:22:8d:5b:ca:52:c7:12:67:f8:ee:10:0e:24:84:4d:9a:
         c0:cd:55:a6:60:b2:9b:44:02:eb:a3:42:70:b9:17:3d:eb:1a:
         02:e4:06:92:f3:7f:12:e2:b5:8b:6b:75:8f:3e:f8:a8:fd:cd:
         1e:06:c1:d0:27:b9:d6:73:7b:18:67:db:f7:88:d6:7f:dc:49:
         14:20:24:f9
-----BEGIN CERTIFICATE-----
MIIEzDCCA7SgAwIBAgIBZDANBgkqhkiG9w0BAQsFADCBlDELMAkGA1UEBhMCVVMx
EDAOBgNVBAgMB01vbnRhbmExEDAOBgNVBAcMB0JvemVtYW4xETAPBgNVBAoMCFNh
d3Rvb3RoMRMwEQYDVQQLDApDb25zdWx0aW5nMRgwFgYDVQQDDA93d3cud29sZnNz
bC5jb20xHzAdBgkqhkiG9w0BCQEWEGluZm9Ad29sZnNzbC5jb20wHhcNMjEwMTI5
MDc0OTE4WhcNMjMxMDI2MDc0OTE4WjCBoTELMAkGA1UEBhMCVVMxEzARBgNVBAgM
Cldhc2hpbmd0b24xEDAOBgNVBAcMB1NlYXR0bGUxFTATBgNVBAoMDHdvbGZTU0wg
SW5jLjEUMBIGA1UECwwLRW5naW5lZXJpbmcxHTAbBgNVBAMMFGNoYWluSi1JQ0E0
LXBhdGhsZW4yMR8wHQYJKoZIhvcNAQkBFhBpbmZvQHdvbGZzc2wuY29tMIIBIjAN
BgkqhkiG9w0BAQEFAAOCAQ8AMIIBCgKCAQEArm3azHHfhe9dQBWkqcozvhBoDueQ
jgHTJnU0cKPQxRIeFo12AXiDKR4sPcMAkx+fLVkFp/TThrUT6hiYir7U/N1cn7Z9
ZJciioWfYR9o2SaB5I5d6TLT8bF+Rn4etEk8KKPIXKyQUCMIUPFSgqBfutLIx2eq
nLEthNJzVT2J5iksdNSYYKVYPsHhkuVbJGJlYMUhDXFYwQhTEmrPf+j8OMep+3R2
1/cWZIVIXHop8MGvjqy8X46I/aPqZQu+2LC96G+97iQja2gJbk1Ry2caf5QJRZWL
sXvdTYCb5ewT293q34Doxz843eMww9+CN3rNAEQoKGR6B5AnczUpkriUVQIDAQAB
o4IBGDCCARQwHQYDVR0OBBYEFL1MrS2yx4sb+byOPHTySYg0HS2tMIHUBgNVHSME
gcwwgcmAFCeOZxF0wyYdP+0zY7Ok2B0w5ejVoYGapIGXMIGUMQswCQYDVQQGEwJV
UzEQMA4GA1UECAwHTW9udGFuYTEQMA4GA1UEBwwHQm96ZW1hbjERMA8GA1UECgwI
U2F3dG9vdGgxEzARBgNVBAsMCkNvbnN1bHRpbmcxGDAWBgNVBAMMD3d3dy53b2xm
c3NsLmNvbTEfMB0GCSqGSIb3DQEJARYQaW5mb0B3b2xmc3NsLmNvbYIUXrqk9LH3
SCXjX5vaoRPt1SsDZxUwDwYDVR0TBAgwBgEB/wIBAjALBgNVHQ8EBAMCAQYwDQYJ
KoZIhvcNAQELBQADggEBAL4nMd9IiQIA9v2B8k7Coq41bNP0YZz5BR3rr5HaziQo
l/erk8O4luXS8XjrjgEI86P6e1kiy1dbISrXPawFKrDj2N4hwuL/SXWKsYUYPzF5
01Oe6emYwo9q0xIoN2AEdd0ybW57OB/0zPbVy4I0kHYjk9qCMX5uxXdQGiHAzWms
savH0OSooofHxyzQ+h8SWhu2z0ztMpmg9b5/1o1AcfByC86eUeUW9Nd+k02ah71k
IawzAZcaIo1bylLHEmf47hAOJIRNmsDNVaZgsptEAuujQnC5Fz3rGgLkBpLzfxLi
tYtrdY8++Kj9zR4GwdAnudZzexhn2/eI1n/cSRQgJPk=
-----END CERTIFICATE-----
